	.file	"hooks.c"
	.comm	call_sites,24008,32
.globl b_strlen
	.bss
	.align 8
	.type	b_strlen, @object
	.size	b_strlen, 8
b_strlen:
	.zero	8
.globl b_strchr
	.align 8
	.type	b_strchr, @object
	.size	b_strchr, 8
b_strchr:
	.zero	8
.globl b_strstr
	.data
	.align 8
	.type	b_strstr, @object
	.size	b_strstr, 8
b_strstr:
	.quad	1
.globl b_memchr
	.bss
	.align 8
	.type	b_memchr, @object
	.size	b_memchr, 8
b_memchr:
	.zero	8
.globl b_strspn
	.data
	.align 8
	.type	b_strspn, @object
	.size	b_strspn, 8
b_strspn:
	.quad	1
.globl b_strcat
	.align 8
	.type	b_strcat, @object
	.size	b_strcat, 8
b_strcat:
	.quad	1
.globl b_strcpy
	.align 8
	.type	b_strcpy, @object
	.size	b_strcpy, 8
b_strcpy:
	.quad	6
.globl b_memcpy
	.align 8
	.type	b_memcpy, @object
	.size	b_memcpy, 8
b_memcpy:
	.quad	6
.globl b_strcmp
	.align 8
	.type	b_strcmp, @object
	.size	b_strcmp, 8
b_strcmp:
	.quad	6
.globl b_strcasecmp
	.align 8
	.type	b_strcasecmp, @object
	.size	b_strcasecmp, 8
b_strcasecmp:
	.quad	6
.globl b_strverscmp
	.align 8
	.type	b_strverscmp, @object
	.size	b_strverscmp, 8
b_strverscmp:
	.quad	6
.globl b_strdup
	.bss
	.align 8
	.type	b_strdup, @object
	.size	b_strdup, 8
b_strdup:
	.zero	8
.globl b_strrchr
	.align 8
	.type	b_strrchr, @object
	.size	b_strrchr, 8
b_strrchr:
	.zero	8
.globl b_bsearch
	.align 8
	.type	b_bsearch, @object
	.size	b_bsearch, 8
b_bsearch:
	.zero	8
.globl b_lsearch
	.align 8
	.type	b_lsearch, @object
	.size	b_lsearch, 8
b_lsearch:
	.zero	8
.globl b_memset
	.align 8
	.type	b_memset, @object
	.size	b_memset, 8
b_memset:
	.zero	8
.globl b_strtol
	.data
	.align 8
	.type	b_strtol, @object
	.size	b_strtol, 8
b_strtol:
	.quad	8
.globl b_malloc
	.align 8
	.type	b_malloc, @object
	.size	b_malloc, 8
b_malloc:
	.quad	8
.globl b_free
	.align 8
	.type	b_free, @object
	.size	b_free, 8
b_free:
	.quad	16
.globl b_qsort
	.align 8
	.type	b_qsort, @object
	.size	b_qsort, 8
b_qsort:
	.quad	8
.globl b_rand
	.align 8
	.type	b_rand, @object
	.size	b_rand, 8
b_rand:
	.quad	16
.globl b_asin
	.align 8
	.type	b_asin, @object
	.size	b_asin, 8
b_asin:
	.quad	16
.globl b_sin
	.align 8
	.type	b_sin, @object
	.size	b_sin, 8
b_sin:
	.quad	16
.globl b_sin2
	.align 8
	.type	b_sin2, @object
	.size	b_sin2, 8
b_sin2:
	.quad	16
.globl b_sin3
	.align 8
	.type	b_sin3, @object
	.size	b_sin3, 8
b_sin3:
	.quad	16
.globl b_erf
	.align 8
	.type	b_erf, @object
	.size	b_erf, 8
b_erf:
	.quad	16
.globl b_pow
	.align 8
	.type	b_pow, @object
	.size	b_pow, 8
b_pow:
	.quad	16
.globl b_bessel
	.align 8
	.type	b_bessel, @object
	.size	b_bessel, 8
b_bessel:
	.quad	16
.globl b_sinh
	.align 8
	.type	b_sinh, @object
	.size	b_sinh, 8
b_sinh:
	.quad	16
.globl b_malloc_lifetime
	.align 8
	.type	b_malloc_lifetime, @object
	.size	b_malloc_lifetime, 8
b_malloc_lifetime:
	.quad	8
	.comm	main_tid,8,8
	.local	libc_handle
	.comm	libc_handle,8,8
	.local	libm_handle
	.comm	libm_handle,8,8
	.text
.globl backtrace2
	.type	backtrace2, @function
backtrace2:
.LFB0:
	.cfi_startproc
	pushq	%rbp
	.cfi_def_cfa_offset 16
	movq	%rsp, %rbp
	.cfi_offset 6, -16
	.cfi_def_cfa_register 6
	movq	%rbp, %rax
	movq	%rax, -8(%rbp)
	movq	-8(%rbp), %rax
	addq	$8, %rax
	movq	(%rax), %rax
	leave
	.cfi_def_cfa 7, 8
	ret
	.cfi_endproc
.LFE0:
	.size	backtrace2, .-backtrace2
.globl x
	.bss
	.align 8
	.type	x, @object
	.size	x, 8
x:
	.zero	8
.globl r
	.align 8
	.type	r, @object
	.size	r, 8
r:
	.zero	8
	.comm	__malloc_hook2,8,8
	.comm	__free_hook2,8,8
	.comm	__realloc_hook2,8,8
	.text
	.type	rdtsc, @function
rdtsc:
.LFB1:
	.cfi_startproc
	pushq	%rbp
	.cfi_def_cfa_offset 16
	movq	%rsp, %rbp
	.cfi_offset 6, -16
	.cfi_def_cfa_register 6
	pushq	%r12
	pushq	%rbx
#APP
# 43 "hooks.c" 1
	rdtsc
# 0 "" 2
#NO_APP
	movl	%edx, %ebx
	.cfi_offset 3, -32
	.cfi_offset 12, -24
	movl	%eax, %r12d
	movl	%r12d, -20(%rbp)
	movl	%ebx, -24(%rbp)
	mov	-24(%rbp), %eax
	movq	%rax, %rdx
	salq	$32, %rdx
	mov	-20(%rbp), %eax
	orq	%rdx, %rax
	popq	%rbx
	popq	%r12
	leave
	.cfi_def_cfa 7, 8
	ret
	.cfi_endproc
.LFE1:
	.size	rdtsc, .-rdtsc
	.section	.rodata
.LC0:
	.string	"/proc/%i/cmdline"
.LC1:
	.string	"r"
	.text
.globl binary_name
	.type	binary_name, @function
binary_name:
.LFB2:
	.cfi_startproc
	pushq	%rbp
	.cfi_def_cfa_offset 16
	movq	%rsp, %rbp
	.cfi_offset 6, -16
	.cfi_def_cfa_register 6
	subq	$32, %rsp
	movl	$48, %edi
	call	malloc
	movq	%rax, -16(%rbp)
	call	getpid
	movl	%eax, %edx
	movl	$.LC0, %ecx
	movq	-16(%rbp), %rax
	movq	%rcx, %rsi
	movq	%rax, %rdi
	movl	$0, %eax
	call	sprintf
	movl	$.LC1, %edx
	movq	-16(%rbp), %rax
	movq	%rdx, %rsi
	movq	%rax, %rdi
	call	fopen
	movq	%rax, -24(%rbp)
	movl	$0, -4(%rbp)
	jmp	.L4
.L5:
	movl	-4(%rbp), %eax
	cltq
	addq	-16(%rbp), %rax
	movb	$0, (%rax)
	addl	$1, -4(%rbp)
.L4:
	cmpl	$47, -4(%rbp)
	jle	.L5
	movq	-24(%rbp), %rdx
	movq	-16(%rbp), %rax
	movl	$48, %esi
	movq	%rax, %rdi
	call	fgets
	movq	-16(%rbp), %rax
	addq	$47, %rax
	movb	$0, (%rax)
	movq	-16(%rbp), %rax
	leave
	.cfi_def_cfa 7, 8
	ret
	.cfi_endproc
.LFE2:
	.size	binary_name, .-binary_name
	.comm	mall_hash,8,8
	.section	.rodata
.LC2:
	.string	"libc.so.6"
.LC3:
	.string	"libm.so"
	.text
	.type	load_dl, @function
load_dl:
.LFB3:
	.cfi_startproc
	pushq	%rbp
	.cfi_def_cfa_offset 16
	movq	%rsp, %rbp
	.cfi_offset 6, -16
	.cfi_def_cfa_register 6
	movl	$2, %esi
	movl	$.LC2, %edi
	call	dlopen
	movq	%rax, libc_handle(%rip)
	movl	$2, %esi
	movl	$.LC3, %edi
	call	dlopen
	movq	%rax, libm_handle(%rip)
	call	pthread_self
	movq	%rax, main_tid(%rip)
	movl	$32, %esi
	movl	$1048640, %edi
	call	calloc
	movq	%rax, mall_hash(%rip)
	movq	__malloc_hook(%rip), %rax
	movq	%rax, __malloc_hook2(%rip)
	movl	$__malloc2, %eax
	movq	%rax, __malloc_hook(%rip)
	movq	__realloc_hook(%rip), %rax
	movq	%rax, __realloc_hook2(%rip)
	movl	$__realloc2, %eax
	movq	%rax, __realloc_hook(%rip)
	movq	__free_hook(%rip), %rax
	movq	%rax, __free_hook2(%rip)
	movl	$__free2, %eax
	movq	%rax, __free_hook(%rip)
	leave
	.cfi_def_cfa 7, 8
	ret
	.cfi_endproc
.LFE3:
	.size	load_dl, .-load_dl
	.section	.ctors,"aw",@progbits
	.align 8
	.quad	load_dl
	.comm	prof,183024,32
	.section	.rodata
.LC4:
	.string	"r+"
.LC5:
	.string	"/home/wizard/libc_profile"
	.text
	.type	save_cnt, @function
save_cnt:
.LFB4:
	.cfi_startproc
	pushq	%rbp
	.cfi_def_cfa_offset 16
	movq	%rsp, %rbp
	.cfi_offset 6, -16
	.cfi_def_cfa_register 6
	pushq	%rbx
	subq	$88, %rsp
	movl	$.LC4, %edx
	movl	$.LC5, %eax
	movq	%rdx, %rsi
	movq	%rax, %rdi
	.cfi_offset 3, -24
	call	fopen
	movq	%rax, -40(%rbp)
	movq	-40(%rbp), %rax
	movq	%rax, %rdi
	call	fileno
	movl	$0, %r9d
	movl	%eax, %r8d
	movl	$1, %ecx
	movl	$3, %edx
	movl	$199880, %esi
	movl	$0, %edi
	call	mmap
	movq	%rax, -48(%rbp)
	cmpq	$0, -48(%rbp)
	je	.L7
	movq	-48(%rbp), %rax
	movq	%rax, -56(%rbp)
	movq	-48(%rbp), %rax
	addq	$183024, %rax
	movq	%rax, -64(%rbp)
	movq	-56(%rbp), %rax
	movq	%rax, -72(%rbp)
	movq	$prof, -80(%rbp)
	movl	$0, -20(%rbp)
	jmp	.L9
.L10:
	movl	-20(%rbp), %eax
	cltq
	salq	$3, %rax
	addq	-72(%rbp), %rax
	movl	-20(%rbp), %edx
	movslq	%edx, %rdx
	salq	$3, %rdx
	addq	-72(%rbp), %rdx
	movq	(%rdx), %rcx
	movl	-20(%rbp), %edx
	movslq	%edx, %rdx
	salq	$3, %rdx
	addq	-80(%rbp), %rdx
	movq	(%rdx), %rdx
	leaq	(%rcx,%rdx), %rdx
	movq	%rdx, (%rax)
	addl	$1, -20(%rbp)
.L9:
	movl	-20(%rbp), %eax
	cmpl	$22877, %eax
	jbe	.L10
	movl	$0, %eax
	call	binary_name
	movq	%rax, -88(%rbp)
	movq	prof+5832(%rip), %rdx
	movq	prof+5840(%rip), %rax
	leaq	(%rdx,%rax), %rax
	movq	%rax, -96(%rbp)
	movl	$0, -24(%rbp)
	movl	$0, -20(%rbp)
	jmp	.L11
.L13:
	movl	-20(%rbp), %eax
	cltq
	salq	$3, %rax
	leaq	0(,%rax,8), %rdx
	subq	%rax, %rdx
	movq	%rdx, %rax
	addq	-64(%rbp), %rax
	leaq	8(%rax), %rcx
	movq	-88(%rbp), %rax
	movl	$48, %edx
	movq	%rcx, %rsi
	movq	%rax, %rdi
	call	strncmp
	testl	%eax, %eax
	jne	.L12
	movq	-64(%rbp), %rcx
	movl	-20(%rbp), %eax
	cltq
	salq	$3, %rax
	leaq	0(,%rax,8), %rdx
	subq	%rax, %rdx
	leaq	(%rcx,%rdx), %rax
	movq	(%rax), %rax
	movq	%rax, %rcx
	addq	-96(%rbp), %rcx
	movq	-64(%rbp), %rbx
	movl	-20(%rbp), %eax
	cltq
	salq	$3, %rax
	leaq	0(,%rax,8), %rdx
	subq	%rax, %rdx
	leaq	(%rbx,%rdx), %rax
	movq	%rcx, (%rax)
	movl	$1, -24(%rbp)
.L12:
	addl	$1, -20(%rbp)
.L11:
	cmpl	$9, -20(%rbp)
	jle	.L13
	movl	$0, -28(%rbp)
	movl	$0, -20(%rbp)
	jmp	.L14
.L16:
	movq	-64(%rbp), %rcx
	movl	-28(%rbp), %eax
	cltq
	salq	$3, %rax
	leaq	0(,%rax,8), %rdx
	subq	%rax, %rdx
	leaq	(%rcx,%rdx), %rax
	movq	(%rax), %rcx
	movq	-64(%rbp), %rbx
	movl	-20(%rbp), %eax
	cltq
	salq	$3, %rax
	leaq	0(,%rax,8), %rdx
	subq	%rax, %rdx
	leaq	(%rbx,%rdx), %rax
	movq	(%rax), %rax
	cmpq	%rax, %rcx
	jbe	.L15
	movl	-20(%rbp), %eax
	movl	%eax, -28(%rbp)
.L15:
	addl	$1, -20(%rbp)
.L14:
	cmpl	$9, -20(%rbp)
	jle	.L16
	cmpl	$0, -24(%rbp)
	jne	.L17
	movq	-64(%rbp), %rcx
	movl	-28(%rbp), %eax
	cltq
	salq	$3, %rax
	leaq	0(,%rax,8), %rdx
	subq	%rax, %rdx
	leaq	(%rcx,%rdx), %rax
	movq	(%rax), %rax
	cmpq	-96(%rbp), %rax
	jae	.L17
	movl	-28(%rbp), %eax
	cltq
	salq	$3, %rax
	leaq	0(,%rax,8), %rdx
	subq	%rax, %rdx
	movq	%rdx, %rax
	addq	-64(%rbp), %rax
	leaq	8(%rax), %rcx
	movq	-88(%rbp), %rax
	movl	$48, %edx
	movq	%rax, %rsi
	movq	%rcx, %rdi
	call	memcpy
	movq	-64(%rbp), %rcx
	movl	-28(%rbp), %eax
	cltq
	salq	$3, %rax
	leaq	0(,%rax,8), %rdx
	subq	%rax, %rdx
	leaq	(%rcx,%rdx), %rdx
	movq	-96(%rbp), %rax
	movq	%rax, (%rdx)
.L17:
	movl	$0, %eax
	call	binary_name
	movq	%rax, -88(%rbp)
	movq	prof+11736(%rip), %rdx
	movq	prof+11744(%rip), %rax
	leaq	(%rdx,%rax), %rax
	movq	%rax, -96(%rbp)
	movl	$0, -24(%rbp)
	movl	$0, -20(%rbp)
	jmp	.L18
.L20:
	movl	-20(%rbp), %eax
	cltq
	salq	$3, %rax
	leaq	0(,%rax,8), %rdx
	subq	%rax, %rdx
	leaq	560(%rdx), %rax
	addq	-64(%rbp), %rax
	leaq	8(%rax), %rcx
	movq	-88(%rbp), %rax
	movl	$48, %edx
	movq	%rcx, %rsi
	movq	%rax, %rdi
	call	strncmp
	testl	%eax, %eax
	jne	.L19
	movq	-64(%rbp), %rcx
	movl	-20(%rbp), %eax
	cltq
	salq	$3, %rax
	leaq	0(,%rax,8), %rdx
	subq	%rax, %rdx
	leaq	(%rcx,%rdx), %rax
	addq	$560, %rax
	movq	(%rax), %rax
	movq	%rax, %rcx
	addq	-96(%rbp), %rcx
	movq	-64(%rbp), %rbx
	movl	-20(%rbp), %eax
	cltq
	salq	$3, %rax
	leaq	0(,%rax,8), %rdx
	subq	%rax, %rdx
	leaq	(%rbx,%rdx), %rax
	addq	$560, %rax
	movq	%rcx, (%rax)
	movl	$1, -24(%rbp)
.L19:
	addl	$1, -20(%rbp)
.L18:
	cmpl	$9, -20(%rbp)
	jle	.L20
	movl	$0, -28(%rbp)
	movl	$0, -20(%rbp)
	jmp	.L21
.L23:
	movq	-64(%rbp), %rcx
	movl	-28(%rbp), %eax
	cltq
	salq	$3, %rax
	leaq	0(,%rax,8), %rdx
	subq	%rax, %rdx
	leaq	(%rcx,%rdx), %rax
	addq	$560, %rax
	movq	(%rax), %rcx
	movq	-64(%rbp), %rbx
	movl	-20(%rbp), %eax
	cltq
	salq	$3, %rax
	leaq	0(,%rax,8), %rdx
	subq	%rax, %rdx
	leaq	(%rbx,%rdx), %rax
	addq	$560, %rax
	movq	(%rax), %rax
	cmpq	%rax, %rcx
	jbe	.L22
	movl	-20(%rbp), %eax
	movl	%eax, -28(%rbp)
.L22:
	addl	$1, -20(%rbp)
.L21:
	cmpl	$9, -20(%rbp)
	jle	.L23
	cmpl	$0, -24(%rbp)
	jne	.L24
	movq	-64(%rbp), %rcx
	movl	-28(%rbp), %eax
	cltq
	salq	$3, %rax
	leaq	0(,%rax,8), %rdx
	subq	%rax, %rdx
	leaq	(%rcx,%rdx), %rax
	addq	$560, %rax
	movq	(%rax), %rax
	cmpq	-96(%rbp), %rax
	jae	.L24
	movl	-28(%rbp), %eax
	cltq
	salq	$3, %rax
	leaq	0(,%rax,8), %rdx
	subq	%rax, %rdx
	leaq	560(%rdx), %rax
	addq	-64(%rbp), %rax
	leaq	8(%rax), %rcx
	movq	-88(%rbp), %rax
	movl	$48, %edx
	movq	%rax, %rsi
	movq	%rcx, %rdi
	call	memcpy
	movq	-64(%rbp), %rcx
	movl	-28(%rbp), %eax
	cltq
	salq	$3, %rax
	leaq	0(,%rax,8), %rdx
	subq	%rax, %rdx
	leaq	(%rcx,%rdx), %rax
	leaq	560(%rax), %rdx
	movq	-96(%rbp), %rax
	movq	%rax, (%rdx)
.L24:
	movl	$0, %eax
	call	binary_name
	movq	%rax, -88(%rbp)
	movq	prof+17640(%rip), %rdx
	movq	prof+17648(%rip), %rax
	leaq	(%rdx,%rax), %rax
	movq	%rax, -96(%rbp)
	movl	$0, -24(%rbp)
	movl	$0, -20(%rbp)
	jmp	.L25
.L27:
	movl	-20(%rbp), %eax
	cltq
	salq	$3, %rax
	leaq	0(,%rax,8), %rdx
	subq	%rax, %rdx
	leaq	1120(%rdx), %rax
	addq	-64(%rbp), %rax
	leaq	8(%rax), %rcx
	movq	-88(%rbp), %rax
	movl	$48, %edx
	movq	%rcx, %rsi
	movq	%rax, %rdi
	call	strncmp
	testl	%eax, %eax
	jne	.L26
	movq	-64(%rbp), %rcx
	movl	-20(%rbp), %eax
	cltq
	salq	$3, %rax
	leaq	0(,%rax,8), %rdx
	subq	%rax, %rdx
	leaq	(%rcx,%rdx), %rax
	addq	$1120, %rax
	movq	(%rax), %rax
	movq	%rax, %rcx
	addq	-96(%rbp), %rcx
	movq	-64(%rbp), %rbx
	movl	-20(%rbp), %eax
	cltq
	salq	$3, %rax
	leaq	0(,%rax,8), %rdx
	subq	%rax, %rdx
	leaq	(%rbx,%rdx), %rax
	addq	$1120, %rax
	movq	%rcx, (%rax)
	movl	$1, -24(%rbp)
.L26:
	addl	$1, -20(%rbp)
.L25:
	cmpl	$9, -20(%rbp)
	jle	.L27
	movl	$0, -28(%rbp)
	movl	$0, -20(%rbp)
	jmp	.L28
.L30:
	movq	-64(%rbp), %rcx
	movl	-28(%rbp), %eax
	cltq
	salq	$3, %rax
	leaq	0(,%rax,8), %rdx
	subq	%rax, %rdx
	leaq	(%rcx,%rdx), %rax
	addq	$1120, %rax
	movq	(%rax), %rcx
	movq	-64(%rbp), %rbx
	movl	-20(%rbp), %eax
	cltq
	salq	$3, %rax
	leaq	0(,%rax,8), %rdx
	subq	%rax, %rdx
	leaq	(%rbx,%rdx), %rax
	addq	$1120, %rax
	movq	(%rax), %rax
	cmpq	%rax, %rcx
	jbe	.L29
	movl	-20(%rbp), %eax
	movl	%eax, -28(%rbp)
.L29:
	addl	$1, -20(%rbp)
.L28:
	cmpl	$9, -20(%rbp)
	jle	.L30
	cmpl	$0, -24(%rbp)
	jne	.L31
	movq	-64(%rbp), %rcx
	movl	-28(%rbp), %eax
	cltq
	salq	$3, %rax
	leaq	0(,%rax,8), %rdx
	subq	%rax, %rdx
	leaq	(%rcx,%rdx), %rax
	addq	$1120, %rax
	movq	(%rax), %rax
	cmpq	-96(%rbp), %rax
	jae	.L31
	movl	-28(%rbp), %eax
	cltq
	salq	$3, %rax
	leaq	0(,%rax,8), %rdx
	subq	%rax, %rdx
	leaq	1120(%rdx), %rax
	addq	-64(%rbp), %rax
	leaq	8(%rax), %rcx
	movq	-88(%rbp), %rax
	movl	$48, %edx
	movq	%rax, %rsi
	movq	%rcx, %rdi
	call	memcpy
	movq	-64(%rbp), %rcx
	movl	-28(%rbp), %eax
	cltq
	salq	$3, %rax
	leaq	0(,%rax,8), %rdx
	subq	%rax, %rdx
	leaq	(%rcx,%rdx), %rax
	leaq	1120(%rax), %rdx
	movq	-96(%rbp), %rax
	movq	%rax, (%rdx)
.L31:
	movl	$0, %eax
	call	binary_name
	movq	%rax, -88(%rbp)
	movq	prof+23544(%rip), %rdx
	movq	prof+23552(%rip), %rax
	leaq	(%rdx,%rax), %rax
	movq	%rax, -96(%rbp)
	movl	$0, -24(%rbp)
	movl	$0, -20(%rbp)
	jmp	.L32
.L34:
	movl	-20(%rbp), %eax
	cltq
	salq	$3, %rax
	leaq	0(,%rax,8), %rdx
	subq	%rax, %rdx
	leaq	1680(%rdx), %rax
	addq	-64(%rbp), %rax
	leaq	8(%rax), %rcx
	movq	-88(%rbp), %rax
	movl	$48, %edx
	movq	%rcx, %rsi
	movq	%rax, %rdi
	call	strncmp
	testl	%eax, %eax
	jne	.L33
	movq	-64(%rbp), %rcx
	movl	-20(%rbp), %eax
	cltq
	salq	$3, %rax
	leaq	0(,%rax,8), %rdx
	subq	%rax, %rdx
	leaq	(%rcx,%rdx), %rax
	addq	$1680, %rax
	movq	(%rax), %rax
	movq	%rax, %rcx
	addq	-96(%rbp), %rcx
	movq	-64(%rbp), %rbx
	movl	-20(%rbp), %eax
	cltq
	salq	$3, %rax
	leaq	0(,%rax,8), %rdx
	subq	%rax, %rdx
	leaq	(%rbx,%rdx), %rax
	addq	$1680, %rax
	movq	%rcx, (%rax)
	movl	$1, -24(%rbp)
.L33:
	addl	$1, -20(%rbp)
.L32:
	cmpl	$9, -20(%rbp)
	jle	.L34
	movl	$0, -28(%rbp)
	movl	$0, -20(%rbp)
	jmp	.L35
.L37:
	movq	-64(%rbp), %rcx
	movl	-28(%rbp), %eax
	cltq
	salq	$3, %rax
	leaq	0(,%rax,8), %rdx
	subq	%rax, %rdx
	leaq	(%rcx,%rdx), %rax
	addq	$1680, %rax
	movq	(%rax), %rcx
	movq	-64(%rbp), %rbx
	movl	-20(%rbp), %eax
	cltq
	salq	$3, %rax
	leaq	0(,%rax,8), %rdx
	subq	%rax, %rdx
	leaq	(%rbx,%rdx), %rax
	addq	$1680, %rax
	movq	(%rax), %rax
	cmpq	%rax, %rcx
	jbe	.L36
	movl	-20(%rbp), %eax
	movl	%eax, -28(%rbp)
.L36:
	addl	$1, -20(%rbp)
.L35:
	cmpl	$9, -20(%rbp)
	jle	.L37
	cmpl	$0, -24(%rbp)
	jne	.L38
	movq	-64(%rbp), %rcx
	movl	-28(%rbp), %eax
	cltq
	salq	$3, %rax
	leaq	0(,%rax,8), %rdx
	subq	%rax, %rdx
	leaq	(%rcx,%rdx), %rax
	addq	$1680, %rax
	movq	(%rax), %rax
	cmpq	-96(%rbp), %rax
	jae	.L38
	movl	-28(%rbp), %eax
	cltq
	salq	$3, %rax
	leaq	0(,%rax,8), %rdx
	subq	%rax, %rdx
	leaq	1680(%rdx), %rax
	addq	-64(%rbp), %rax
	leaq	8(%rax), %rcx
	movq	-88(%rbp), %rax
	movl	$48, %edx
	movq	%rax, %rsi
	movq	%rcx, %rdi
	call	memcpy
	movq	-64(%rbp), %rcx
	movl	-28(%rbp), %eax
	cltq
	salq	$3, %rax
	leaq	0(,%rax,8), %rdx
	subq	%rax, %rdx
	leaq	(%rcx,%rdx), %rax
	leaq	1680(%rax), %rdx
	movq	-96(%rbp), %rax
	movq	%rax, (%rdx)
.L38:
	movl	$0, %eax
	call	binary_name
	movq	%rax, -88(%rbp)
	movq	prof+29448(%rip), %rdx
	movq	prof+29456(%rip), %rax
	leaq	(%rdx,%rax), %rax
	movq	%rax, -96(%rbp)
	movl	$0, -24(%rbp)
	movl	$0, -20(%rbp)
	jmp	.L39
.L41:
	movl	-20(%rbp), %eax
	cltq
	salq	$3, %rax
	leaq	0(,%rax,8), %rdx
	subq	%rax, %rdx
	leaq	2240(%rdx), %rax
	addq	-64(%rbp), %rax
	leaq	8(%rax), %rcx
	movq	-88(%rbp), %rax
	movl	$48, %edx
	movq	%rcx, %rsi
	movq	%rax, %rdi
	call	strncmp
	testl	%eax, %eax
	jne	.L40
	movq	-64(%rbp), %rcx
	movl	-20(%rbp), %eax
	cltq
	salq	$3, %rax
	leaq	0(,%rax,8), %rdx
	subq	%rax, %rdx
	leaq	(%rcx,%rdx), %rax
	addq	$2240, %rax
	movq	(%rax), %rax
	movq	%rax, %rcx
	addq	-96(%rbp), %rcx
	movq	-64(%rbp), %rbx
	movl	-20(%rbp), %eax
	cltq
	salq	$3, %rax
	leaq	0(,%rax,8), %rdx
	subq	%rax, %rdx
	leaq	(%rbx,%rdx), %rax
	addq	$2240, %rax
	movq	%rcx, (%rax)
	movl	$1, -24(%rbp)
.L40:
	addl	$1, -20(%rbp)
.L39:
	cmpl	$9, -20(%rbp)
	jle	.L41
	movl	$0, -28(%rbp)
	movl	$0, -20(%rbp)
	jmp	.L42
.L44:
	movq	-64(%rbp), %rcx
	movl	-28(%rbp), %eax
	cltq
	salq	$3, %rax
	leaq	0(,%rax,8), %rdx
	subq	%rax, %rdx
	leaq	(%rcx,%rdx), %rax
	addq	$2240, %rax
	movq	(%rax), %rcx
	movq	-64(%rbp), %rbx
	movl	-20(%rbp), %eax
	cltq
	salq	$3, %rax
	leaq	0(,%rax,8), %rdx
	subq	%rax, %rdx
	leaq	(%rbx,%rdx), %rax
	addq	$2240, %rax
	movq	(%rax), %rax
	cmpq	%rax, %rcx
	jbe	.L43
	movl	-20(%rbp), %eax
	movl	%eax, -28(%rbp)
.L43:
	addl	$1, -20(%rbp)
.L42:
	cmpl	$9, -20(%rbp)
	jle	.L44
	cmpl	$0, -24(%rbp)
	jne	.L45
	movq	-64(%rbp), %rcx
	movl	-28(%rbp), %eax
	cltq
	salq	$3, %rax
	leaq	0(,%rax,8), %rdx
	subq	%rax, %rdx
	leaq	(%rcx,%rdx), %rax
	addq	$2240, %rax
	movq	(%rax), %rax
	cmpq	-96(%rbp), %rax
	jae	.L45
	movl	-28(%rbp), %eax
	cltq
	salq	$3, %rax
	leaq	0(,%rax,8), %rdx
	subq	%rax, %rdx
	leaq	2240(%rdx), %rax
	addq	-64(%rbp), %rax
	leaq	8(%rax), %rcx
	movq	-88(%rbp), %rax
	movl	$48, %edx
	movq	%rax, %rsi
	movq	%rcx, %rdi
	call	memcpy
	movq	-64(%rbp), %rcx
	movl	-28(%rbp), %eax
	cltq
	salq	$3, %rax
	leaq	0(,%rax,8), %rdx
	subq	%rax, %rdx
	leaq	(%rcx,%rdx), %rax
	leaq	2240(%rax), %rdx
	movq	-96(%rbp), %rax
	movq	%rax, (%rdx)
.L45:
	movl	$0, %eax
	call	binary_name
	movq	%rax, -88(%rbp)
	movq	prof+35352(%rip), %rdx
	movq	prof+35360(%rip), %rax
	leaq	(%rdx,%rax), %rax
	movq	%rax, -96(%rbp)
	movl	$0, -24(%rbp)
	movl	$0, -20(%rbp)
	jmp	.L46
.L48:
	movl	-20(%rbp), %eax
	cltq
	salq	$3, %rax
	leaq	0(,%rax,8), %rdx
	subq	%rax, %rdx
	leaq	2800(%rdx), %rax
	addq	-64(%rbp), %rax
	leaq	8(%rax), %rcx
	movq	-88(%rbp), %rax
	movl	$48, %edx
	movq	%rcx, %rsi
	movq	%rax, %rdi
	call	strncmp
	testl	%eax, %eax
	jne	.L47
	movq	-64(%rbp), %rcx
	movl	-20(%rbp), %eax
	cltq
	salq	$3, %rax
	leaq	0(,%rax,8), %rdx
	subq	%rax, %rdx
	leaq	(%rcx,%rdx), %rax
	addq	$2800, %rax
	movq	(%rax), %rax
	movq	%rax, %rcx
	addq	-96(%rbp), %rcx
	movq	-64(%rbp), %rbx
	movl	-20(%rbp), %eax
	cltq
	salq	$3, %rax
	leaq	0(,%rax,8), %rdx
	subq	%rax, %rdx
	leaq	(%rbx,%rdx), %rax
	addq	$2800, %rax
	movq	%rcx, (%rax)
	movl	$1, -24(%rbp)
.L47:
	addl	$1, -20(%rbp)
.L46:
	cmpl	$9, -20(%rbp)
	jle	.L48
	movl	$0, -28(%rbp)
	movl	$0, -20(%rbp)
	jmp	.L49
.L51:
	movq	-64(%rbp), %rcx
	movl	-28(%rbp), %eax
	cltq
	salq	$3, %rax
	leaq	0(,%rax,8), %rdx
	subq	%rax, %rdx
	leaq	(%rcx,%rdx), %rax
	addq	$2800, %rax
	movq	(%rax), %rcx
	movq	-64(%rbp), %rbx
	movl	-20(%rbp), %eax
	cltq
	salq	$3, %rax
	leaq	0(,%rax,8), %rdx
	subq	%rax, %rdx
	leaq	(%rbx,%rdx), %rax
	addq	$2800, %rax
	movq	(%rax), %rax
	cmpq	%rax, %rcx
	jbe	.L50
	movl	-20(%rbp), %eax
	movl	%eax, -28(%rbp)
.L50:
	addl	$1, -20(%rbp)
.L49:
	cmpl	$9, -20(%rbp)
	jle	.L51
	cmpl	$0, -24(%rbp)
	jne	.L52
	movq	-64(%rbp), %rcx
	movl	-28(%rbp), %eax
	cltq
	salq	$3, %rax
	leaq	0(,%rax,8), %rdx
	subq	%rax, %rdx
	leaq	(%rcx,%rdx), %rax
	addq	$2800, %rax
	movq	(%rax), %rax
	cmpq	-96(%rbp), %rax
	jae	.L52
	movl	-28(%rbp), %eax
	cltq
	salq	$3, %rax
	leaq	0(,%rax,8), %rdx
	subq	%rax, %rdx
	leaq	2800(%rdx), %rax
	addq	-64(%rbp), %rax
	leaq	8(%rax), %rcx
	movq	-88(%rbp), %rax
	movl	$48, %edx
	movq	%rax, %rsi
	movq	%rcx, %rdi
	call	memcpy
	movq	-64(%rbp), %rcx
	movl	-28(%rbp), %eax
	cltq
	salq	$3, %rax
	leaq	0(,%rax,8), %rdx
	subq	%rax, %rdx
	leaq	(%rcx,%rdx), %rax
	leaq	2800(%rax), %rdx
	movq	-96(%rbp), %rax
	movq	%rax, (%rdx)
.L52:
	movl	$0, %eax
	call	binary_name
	movq	%rax, -88(%rbp)
	movq	prof+41256(%rip), %rdx
	movq	prof+41264(%rip), %rax
	leaq	(%rdx,%rax), %rax
	movq	%rax, -96(%rbp)
	movl	$0, -24(%rbp)
	movl	$0, -20(%rbp)
	jmp	.L53
.L55:
	movl	-20(%rbp), %eax
	cltq
	salq	$3, %rax
	leaq	0(,%rax,8), %rdx
	subq	%rax, %rdx
	leaq	3360(%rdx), %rax
	addq	-64(%rbp), %rax
	leaq	8(%rax), %rcx
	movq	-88(%rbp), %rax
	movl	$48, %edx
	movq	%rcx, %rsi
	movq	%rax, %rdi
	call	strncmp
	testl	%eax, %eax
	jne	.L54
	movq	-64(%rbp), %rcx
	movl	-20(%rbp), %eax
	cltq
	salq	$3, %rax
	leaq	0(,%rax,8), %rdx
	subq	%rax, %rdx
	leaq	(%rcx,%rdx), %rax
	addq	$3360, %rax
	movq	(%rax), %rax
	movq	%rax, %rcx
	addq	-96(%rbp), %rcx
	movq	-64(%rbp), %rbx
	movl	-20(%rbp), %eax
	cltq
	salq	$3, %rax
	leaq	0(,%rax,8), %rdx
	subq	%rax, %rdx
	leaq	(%rbx,%rdx), %rax
	addq	$3360, %rax
	movq	%rcx, (%rax)
	movl	$1, -24(%rbp)
.L54:
	addl	$1, -20(%rbp)
.L53:
	cmpl	$9, -20(%rbp)
	jle	.L55
	movl	$0, -28(%rbp)
	movl	$0, -20(%rbp)
	jmp	.L56
.L58:
	movq	-64(%rbp), %rcx
	movl	-28(%rbp), %eax
	cltq
	salq	$3, %rax
	leaq	0(,%rax,8), %rdx
	subq	%rax, %rdx
	leaq	(%rcx,%rdx), %rax
	addq	$3360, %rax
	movq	(%rax), %rcx
	movq	-64(%rbp), %rbx
	movl	-20(%rbp), %eax
	cltq
	salq	$3, %rax
	leaq	0(,%rax,8), %rdx
	subq	%rax, %rdx
	leaq	(%rbx,%rdx), %rax
	addq	$3360, %rax
	movq	(%rax), %rax
	cmpq	%rax, %rcx
	jbe	.L57
	movl	-20(%rbp), %eax
	movl	%eax, -28(%rbp)
.L57:
	addl	$1, -20(%rbp)
.L56:
	cmpl	$9, -20(%rbp)
	jle	.L58
	cmpl	$0, -24(%rbp)
	jne	.L59
	movq	-64(%rbp), %rcx
	movl	-28(%rbp), %eax
	cltq
	salq	$3, %rax
	leaq	0(,%rax,8), %rdx
	subq	%rax, %rdx
	leaq	(%rcx,%rdx), %rax
	addq	$3360, %rax
	movq	(%rax), %rax
	cmpq	-96(%rbp), %rax
	jae	.L59
	movl	-28(%rbp), %eax
	cltq
	salq	$3, %rax
	leaq	0(,%rax,8), %rdx
	subq	%rax, %rdx
	leaq	3360(%rdx), %rax
	addq	-64(%rbp), %rax
	leaq	8(%rax), %rcx
	movq	-88(%rbp), %rax
	movl	$48, %edx
	movq	%rax, %rsi
	movq	%rcx, %rdi
	call	memcpy
	movq	-64(%rbp), %rcx
	movl	-28(%rbp), %eax
	cltq
	salq	$3, %rax
	leaq	0(,%rax,8), %rdx
	subq	%rax, %rdx
	leaq	(%rcx,%rdx), %rax
	leaq	3360(%rax), %rdx
	movq	-96(%rbp), %rax
	movq	%rax, (%rdx)
.L59:
	movl	$0, %eax
	call	binary_name
	movq	%rax, -88(%rbp)
	movq	prof+47160(%rip), %rdx
	movq	prof+47168(%rip), %rax
	leaq	(%rdx,%rax), %rax
	movq	%rax, -96(%rbp)
	movl	$0, -24(%rbp)
	movl	$0, -20(%rbp)
	jmp	.L60
.L62:
	movl	-20(%rbp), %eax
	cltq
	salq	$3, %rax
	leaq	0(,%rax,8), %rdx
	subq	%rax, %rdx
	leaq	3920(%rdx), %rax
	addq	-64(%rbp), %rax
	leaq	8(%rax), %rcx
	movq	-88(%rbp), %rax
	movl	$48, %edx
	movq	%rcx, %rsi
	movq	%rax, %rdi
	call	strncmp
	testl	%eax, %eax
	jne	.L61
	movq	-64(%rbp), %rcx
	movl	-20(%rbp), %eax
	cltq
	salq	$3, %rax
	leaq	0(,%rax,8), %rdx
	subq	%rax, %rdx
	leaq	(%rcx,%rdx), %rax
	addq	$3920, %rax
	movq	(%rax), %rax
	movq	%rax, %rcx
	addq	-96(%rbp), %rcx
	movq	-64(%rbp), %rbx
	movl	-20(%rbp), %eax
	cltq
	salq	$3, %rax
	leaq	0(,%rax,8), %rdx
	subq	%rax, %rdx
	leaq	(%rbx,%rdx), %rax
	addq	$3920, %rax
	movq	%rcx, (%rax)
	movl	$1, -24(%rbp)
.L61:
	addl	$1, -20(%rbp)
.L60:
	cmpl	$9, -20(%rbp)
	jle	.L62
	movl	$0, -28(%rbp)
	movl	$0, -20(%rbp)
	jmp	.L63
.L65:
	movq	-64(%rbp), %rcx
	movl	-28(%rbp), %eax
	cltq
	salq	$3, %rax
	leaq	0(,%rax,8), %rdx
	subq	%rax, %rdx
	leaq	(%rcx,%rdx), %rax
	addq	$3920, %rax
	movq	(%rax), %rcx
	movq	-64(%rbp), %rbx
	movl	-20(%rbp), %eax
	cltq
	salq	$3, %rax
	leaq	0(,%rax,8), %rdx
	subq	%rax, %rdx
	leaq	(%rbx,%rdx), %rax
	addq	$3920, %rax
	movq	(%rax), %rax
	cmpq	%rax, %rcx
	jbe	.L64
	movl	-20(%rbp), %eax
	movl	%eax, -28(%rbp)
.L64:
	addl	$1, -20(%rbp)
.L63:
	cmpl	$9, -20(%rbp)
	jle	.L65
	cmpl	$0, -24(%rbp)
	jne	.L66
	movq	-64(%rbp), %rcx
	movl	-28(%rbp), %eax
	cltq
	salq	$3, %rax
	leaq	0(,%rax,8), %rdx
	subq	%rax, %rdx
	leaq	(%rcx,%rdx), %rax
	addq	$3920, %rax
	movq	(%rax), %rax
	cmpq	-96(%rbp), %rax
	jae	.L66
	movl	-28(%rbp), %eax
	cltq
	salq	$3, %rax
	leaq	0(,%rax,8), %rdx
	subq	%rax, %rdx
	leaq	3920(%rdx), %rax
	addq	-64(%rbp), %rax
	leaq	8(%rax), %rcx
	movq	-88(%rbp), %rax
	movl	$48, %edx
	movq	%rax, %rsi
	movq	%rcx, %rdi
	call	memcpy
	movq	-64(%rbp), %rcx
	movl	-28(%rbp), %eax
	cltq
	salq	$3, %rax
	leaq	0(,%rax,8), %rdx
	subq	%rax, %rdx
	leaq	(%rcx,%rdx), %rax
	leaq	3920(%rax), %rdx
	movq	-96(%rbp), %rax
	movq	%rax, (%rdx)
.L66:
	movl	$0, %eax
	call	binary_name
	movq	%rax, -88(%rbp)
	movq	prof+53064(%rip), %rdx
	movq	prof+53072(%rip), %rax
	leaq	(%rdx,%rax), %rax
	movq	%rax, -96(%rbp)
	movl	$0, -24(%rbp)
	movl	$0, -20(%rbp)
	jmp	.L67
.L69:
	movl	-20(%rbp), %eax
	cltq
	salq	$3, %rax
	leaq	0(,%rax,8), %rdx
	subq	%rax, %rdx
	leaq	4480(%rdx), %rax
	addq	-64(%rbp), %rax
	leaq	8(%rax), %rcx
	movq	-88(%rbp), %rax
	movl	$48, %edx
	movq	%rcx, %rsi
	movq	%rax, %rdi
	call	strncmp
	testl	%eax, %eax
	jne	.L68
	movq	-64(%rbp), %rcx
	movl	-20(%rbp), %eax
	cltq
	salq	$3, %rax
	leaq	0(,%rax,8), %rdx
	subq	%rax, %rdx
	leaq	(%rcx,%rdx), %rax
	addq	$4480, %rax
	movq	(%rax), %rax
	movq	%rax, %rcx
	addq	-96(%rbp), %rcx
	movq	-64(%rbp), %rbx
	movl	-20(%rbp), %eax
	cltq
	salq	$3, %rax
	leaq	0(,%rax,8), %rdx
	subq	%rax, %rdx
	leaq	(%rbx,%rdx), %rax
	addq	$4480, %rax
	movq	%rcx, (%rax)
	movl	$1, -24(%rbp)
.L68:
	addl	$1, -20(%rbp)
.L67:
	cmpl	$9, -20(%rbp)
	jle	.L69
	movl	$0, -28(%rbp)
	movl	$0, -20(%rbp)
	jmp	.L70
.L72:
	movq	-64(%rbp), %rcx
	movl	-28(%rbp), %eax
	cltq
	salq	$3, %rax
	leaq	0(,%rax,8), %rdx
	subq	%rax, %rdx
	leaq	(%rcx,%rdx), %rax
	addq	$4480, %rax
	movq	(%rax), %rcx
	movq	-64(%rbp), %rbx
	movl	-20(%rbp), %eax
	cltq
	salq	$3, %rax
	leaq	0(,%rax,8), %rdx
	subq	%rax, %rdx
	leaq	(%rbx,%rdx), %rax
	addq	$4480, %rax
	movq	(%rax), %rax
	cmpq	%rax, %rcx
	jbe	.L71
	movl	-20(%rbp), %eax
	movl	%eax, -28(%rbp)
.L71:
	addl	$1, -20(%rbp)
.L70:
	cmpl	$9, -20(%rbp)
	jle	.L72
	cmpl	$0, -24(%rbp)
	jne	.L73
	movq	-64(%rbp), %rcx
	movl	-28(%rbp), %eax
	cltq
	salq	$3, %rax
	leaq	0(,%rax,8), %rdx
	subq	%rax, %rdx
	leaq	(%rcx,%rdx), %rax
	addq	$4480, %rax
	movq	(%rax), %rax
	cmpq	-96(%rbp), %rax
	jae	.L73
	movl	-28(%rbp), %eax
	cltq
	salq	$3, %rax
	leaq	0(,%rax,8), %rdx
	subq	%rax, %rdx
	leaq	4480(%rdx), %rax
	addq	-64(%rbp), %rax
	leaq	8(%rax), %rcx
	movq	-88(%rbp), %rax
	movl	$48, %edx
	movq	%rax, %rsi
	movq	%rcx, %rdi
	call	memcpy
	movq	-64(%rbp), %rcx
	movl	-28(%rbp), %eax
	cltq
	salq	$3, %rax
	leaq	0(,%rax,8), %rdx
	subq	%rax, %rdx
	leaq	(%rcx,%rdx), %rax
	leaq	4480(%rax), %rdx
	movq	-96(%rbp), %rax
	movq	%rax, (%rdx)
.L73:
	movl	$0, %eax
	call	binary_name
	movq	%rax, -88(%rbp)
	movq	prof+58968(%rip), %rdx
	movq	prof+58976(%rip), %rax
	leaq	(%rdx,%rax), %rax
	movq	%rax, -96(%rbp)
	movl	$0, -24(%rbp)
	movl	$0, -20(%rbp)
	jmp	.L74
.L76:
	movl	-20(%rbp), %eax
	cltq
	salq	$3, %rax
	leaq	0(,%rax,8), %rdx
	subq	%rax, %rdx
	leaq	5040(%rdx), %rax
	addq	-64(%rbp), %rax
	leaq	8(%rax), %rcx
	movq	-88(%rbp), %rax
	movl	$48, %edx
	movq	%rcx, %rsi
	movq	%rax, %rdi
	call	strncmp
	testl	%eax, %eax
	jne	.L75
	movq	-64(%rbp), %rcx
	movl	-20(%rbp), %eax
	cltq
	salq	$3, %rax
	leaq	0(,%rax,8), %rdx
	subq	%rax, %rdx
	leaq	(%rcx,%rdx), %rax
	addq	$5040, %rax
	movq	(%rax), %rax
	movq	%rax, %rcx
	addq	-96(%rbp), %rcx
	movq	-64(%rbp), %rbx
	movl	-20(%rbp), %eax
	cltq
	salq	$3, %rax
	leaq	0(,%rax,8), %rdx
	subq	%rax, %rdx
	leaq	(%rbx,%rdx), %rax
	addq	$5040, %rax
	movq	%rcx, (%rax)
	movl	$1, -24(%rbp)
.L75:
	addl	$1, -20(%rbp)
.L74:
	cmpl	$9, -20(%rbp)
	jle	.L76
	movl	$0, -28(%rbp)
	movl	$0, -20(%rbp)
	jmp	.L77
.L79:
	movq	-64(%rbp), %rcx
	movl	-28(%rbp), %eax
	cltq
	salq	$3, %rax
	leaq	0(,%rax,8), %rdx
	subq	%rax, %rdx
	leaq	(%rcx,%rdx), %rax
	addq	$5040, %rax
	movq	(%rax), %rcx
	movq	-64(%rbp), %rbx
	movl	-20(%rbp), %eax
	cltq
	salq	$3, %rax
	leaq	0(,%rax,8), %rdx
	subq	%rax, %rdx
	leaq	(%rbx,%rdx), %rax
	addq	$5040, %rax
	movq	(%rax), %rax
	cmpq	%rax, %rcx
	jbe	.L78
	movl	-20(%rbp), %eax
	movl	%eax, -28(%rbp)
.L78:
	addl	$1, -20(%rbp)
.L77:
	cmpl	$9, -20(%rbp)
	jle	.L79
	cmpl	$0, -24(%rbp)
	jne	.L80
	movq	-64(%rbp), %rcx
	movl	-28(%rbp), %eax
	cltq
	salq	$3, %rax
	leaq	0(,%rax,8), %rdx
	subq	%rax, %rdx
	leaq	(%rcx,%rdx), %rax
	addq	$5040, %rax
	movq	(%rax), %rax
	cmpq	-96(%rbp), %rax
	jae	.L80
	movl	-28(%rbp), %eax
	cltq
	salq	$3, %rax
	leaq	0(,%rax,8), %rdx
	subq	%rax, %rdx
	leaq	5040(%rdx), %rax
	addq	-64(%rbp), %rax
	leaq	8(%rax), %rcx
	movq	-88(%rbp), %rax
	movl	$48, %edx
	movq	%rax, %rsi
	movq	%rcx, %rdi
	call	memcpy
	movq	-64(%rbp), %rcx
	movl	-28(%rbp), %eax
	cltq
	salq	$3, %rax
	leaq	0(,%rax,8), %rdx
	subq	%rax, %rdx
	leaq	(%rcx,%rdx), %rax
	leaq	5040(%rax), %rdx
	movq	-96(%rbp), %rax
	movq	%rax, (%rdx)
.L80:
	movl	$0, %eax
	call	binary_name
	movq	%rax, -88(%rbp)
	movq	prof+64872(%rip), %rdx
	movq	prof+64880(%rip), %rax
	leaq	(%rdx,%rax), %rax
	movq	%rax, -96(%rbp)
	movl	$0, -24(%rbp)
	movl	$0, -20(%rbp)
	jmp	.L81
.L83:
	movl	-20(%rbp), %eax
	cltq
	salq	$3, %rax
	leaq	0(,%rax,8), %rdx
	subq	%rax, %rdx
	leaq	5600(%rdx), %rax
	addq	-64(%rbp), %rax
	leaq	8(%rax), %rcx
	movq	-88(%rbp), %rax
	movl	$48, %edx
	movq	%rcx, %rsi
	movq	%rax, %rdi
	call	strncmp
	testl	%eax, %eax
	jne	.L82
	movq	-64(%rbp), %rcx
	movl	-20(%rbp), %eax
	cltq
	salq	$3, %rax
	leaq	0(,%rax,8), %rdx
	subq	%rax, %rdx
	leaq	(%rcx,%rdx), %rax
	addq	$5600, %rax
	movq	(%rax), %rax
	movq	%rax, %rcx
	addq	-96(%rbp), %rcx
	movq	-64(%rbp), %rbx
	movl	-20(%rbp), %eax
	cltq
	salq	$3, %rax
	leaq	0(,%rax,8), %rdx
	subq	%rax, %rdx
	leaq	(%rbx,%rdx), %rax
	addq	$5600, %rax
	movq	%rcx, (%rax)
	movl	$1, -24(%rbp)
.L82:
	addl	$1, -20(%rbp)
.L81:
	cmpl	$9, -20(%rbp)
	jle	.L83
	movl	$0, -28(%rbp)
	movl	$0, -20(%rbp)
	jmp	.L84
.L86:
	movq	-64(%rbp), %rcx
	movl	-28(%rbp), %eax
	cltq
	salq	$3, %rax
	leaq	0(,%rax,8), %rdx
	subq	%rax, %rdx
	leaq	(%rcx,%rdx), %rax
	addq	$5600, %rax
	movq	(%rax), %rcx
	movq	-64(%rbp), %rbx
	movl	-20(%rbp), %eax
	cltq
	salq	$3, %rax
	leaq	0(,%rax,8), %rdx
	subq	%rax, %rdx
	leaq	(%rbx,%rdx), %rax
	addq	$5600, %rax
	movq	(%rax), %rax
	cmpq	%rax, %rcx
	jbe	.L85
	movl	-20(%rbp), %eax
	movl	%eax, -28(%rbp)
.L85:
	addl	$1, -20(%rbp)
.L84:
	cmpl	$9, -20(%rbp)
	jle	.L86
	cmpl	$0, -24(%rbp)
	jne	.L87
	movq	-64(%rbp), %rcx
	movl	-28(%rbp), %eax
	cltq
	salq	$3, %rax
	leaq	0(,%rax,8), %rdx
	subq	%rax, %rdx
	leaq	(%rcx,%rdx), %rax
	addq	$5600, %rax
	movq	(%rax), %rax
	cmpq	-96(%rbp), %rax
	jae	.L87
	movl	-28(%rbp), %eax
	cltq
	salq	$3, %rax
	leaq	0(,%rax,8), %rdx
	subq	%rax, %rdx
	leaq	5600(%rdx), %rax
	addq	-64(%rbp), %rax
	leaq	8(%rax), %rcx
	movq	-88(%rbp), %rax
	movl	$48, %edx
	movq	%rax, %rsi
	movq	%rcx, %rdi
	call	memcpy
	movq	-64(%rbp), %rcx
	movl	-28(%rbp), %eax
	cltq
	salq	$3, %rax
	leaq	0(,%rax,8), %rdx
	subq	%rax, %rdx
	leaq	(%rcx,%rdx), %rax
	leaq	5600(%rax), %rdx
	movq	-96(%rbp), %rax
	movq	%rax, (%rdx)
.L87:
	movl	$0, %eax
	call	binary_name
	movq	%rax, -88(%rbp)
	movq	prof+70776(%rip), %rdx
	movq	prof+70784(%rip), %rax
	leaq	(%rdx,%rax), %rax
	movq	%rax, -96(%rbp)
	movl	$0, -24(%rbp)
	movl	$0, -20(%rbp)
	jmp	.L88
.L90:
	movl	-20(%rbp), %eax
	cltq
	salq	$3, %rax
	leaq	0(,%rax,8), %rdx
	subq	%rax, %rdx
	leaq	6160(%rdx), %rax
	addq	-64(%rbp), %rax
	leaq	8(%rax), %rcx
	movq	-88(%rbp), %rax
	movl	$48, %edx
	movq	%rcx, %rsi
	movq	%rax, %rdi
	call	strncmp
	testl	%eax, %eax
	jne	.L89
	movq	-64(%rbp), %rcx
	movl	-20(%rbp), %eax
	cltq
	salq	$3, %rax
	leaq	0(,%rax,8), %rdx
	subq	%rax, %rdx
	leaq	(%rcx,%rdx), %rax
	addq	$6160, %rax
	movq	(%rax), %rax
	movq	%rax, %rcx
	addq	-96(%rbp), %rcx
	movq	-64(%rbp), %rbx
	movl	-20(%rbp), %eax
	cltq
	salq	$3, %rax
	leaq	0(,%rax,8), %rdx
	subq	%rax, %rdx
	leaq	(%rbx,%rdx), %rax
	addq	$6160, %rax
	movq	%rcx, (%rax)
	movl	$1, -24(%rbp)
.L89:
	addl	$1, -20(%rbp)
.L88:
	cmpl	$9, -20(%rbp)
	jle	.L90
	movl	$0, -28(%rbp)
	movl	$0, -20(%rbp)
	jmp	.L91
.L93:
	movq	-64(%rbp), %rcx
	movl	-28(%rbp), %eax
	cltq
	salq	$3, %rax
	leaq	0(,%rax,8), %rdx
	subq	%rax, %rdx
	leaq	(%rcx,%rdx), %rax
	addq	$6160, %rax
	movq	(%rax), %rcx
	movq	-64(%rbp), %rbx
	movl	-20(%rbp), %eax
	cltq
	salq	$3, %rax
	leaq	0(,%rax,8), %rdx
	subq	%rax, %rdx
	leaq	(%rbx,%rdx), %rax
	addq	$6160, %rax
	movq	(%rax), %rax
	cmpq	%rax, %rcx
	jbe	.L92
	movl	-20(%rbp), %eax
	movl	%eax, -28(%rbp)
.L92:
	addl	$1, -20(%rbp)
.L91:
	cmpl	$9, -20(%rbp)
	jle	.L93
	cmpl	$0, -24(%rbp)
	jne	.L94
	movq	-64(%rbp), %rcx
	movl	-28(%rbp), %eax
	cltq
	salq	$3, %rax
	leaq	0(,%rax,8), %rdx
	subq	%rax, %rdx
	leaq	(%rcx,%rdx), %rax
	addq	$6160, %rax
	movq	(%rax), %rax
	cmpq	-96(%rbp), %rax
	jae	.L94
	movl	-28(%rbp), %eax
	cltq
	salq	$3, %rax
	leaq	0(,%rax,8), %rdx
	subq	%rax, %rdx
	leaq	6160(%rdx), %rax
	addq	-64(%rbp), %rax
	leaq	8(%rax), %rcx
	movq	-88(%rbp), %rax
	movl	$48, %edx
	movq	%rax, %rsi
	movq	%rcx, %rdi
	call	memcpy
	movq	-64(%rbp), %rcx
	movl	-28(%rbp), %eax
	cltq
	salq	$3, %rax
	leaq	0(,%rax,8), %rdx
	subq	%rax, %rdx
	leaq	(%rcx,%rdx), %rax
	leaq	6160(%rax), %rdx
	movq	-96(%rbp), %rax
	movq	%rax, (%rdx)
.L94:
	movl	$0, %eax
	call	binary_name
	movq	%rax, -88(%rbp)
	movq	prof+76680(%rip), %rdx
	movq	prof+76688(%rip), %rax
	leaq	(%rdx,%rax), %rax
	movq	%rax, -96(%rbp)
	movl	$0, -24(%rbp)
	movl	$0, -20(%rbp)
	jmp	.L95
.L97:
	movl	-20(%rbp), %eax
	cltq
	salq	$3, %rax
	leaq	0(,%rax,8), %rdx
	subq	%rax, %rdx
	leaq	6720(%rdx), %rax
	addq	-64(%rbp), %rax
	leaq	8(%rax), %rcx
	movq	-88(%rbp), %rax
	movl	$48, %edx
	movq	%rcx, %rsi
	movq	%rax, %rdi
	call	strncmp
	testl	%eax, %eax
	jne	.L96
	movq	-64(%rbp), %rcx
	movl	-20(%rbp), %eax
	cltq
	salq	$3, %rax
	leaq	0(,%rax,8), %rdx
	subq	%rax, %rdx
	leaq	(%rcx,%rdx), %rax
	addq	$6720, %rax
	movq	(%rax), %rax
	movq	%rax, %rcx
	addq	-96(%rbp), %rcx
	movq	-64(%rbp), %rbx
	movl	-20(%rbp), %eax
	cltq
	salq	$3, %rax
	leaq	0(,%rax,8), %rdx
	subq	%rax, %rdx
	leaq	(%rbx,%rdx), %rax
	addq	$6720, %rax
	movq	%rcx, (%rax)
	movl	$1, -24(%rbp)
.L96:
	addl	$1, -20(%rbp)
.L95:
	cmpl	$9, -20(%rbp)
	jle	.L97
	movl	$0, -28(%rbp)
	movl	$0, -20(%rbp)
	jmp	.L98
.L100:
	movq	-64(%rbp), %rcx
	movl	-28(%rbp), %eax
	cltq
	salq	$3, %rax
	leaq	0(,%rax,8), %rdx
	subq	%rax, %rdx
	leaq	(%rcx,%rdx), %rax
	addq	$6720, %rax
	movq	(%rax), %rcx
	movq	-64(%rbp), %rbx
	movl	-20(%rbp), %eax
	cltq
	salq	$3, %rax
	leaq	0(,%rax,8), %rdx
	subq	%rax, %rdx
	leaq	(%rbx,%rdx), %rax
	addq	$6720, %rax
	movq	(%rax), %rax
	cmpq	%rax, %rcx
	jbe	.L99
	movl	-20(%rbp), %eax
	movl	%eax, -28(%rbp)
.L99:
	addl	$1, -20(%rbp)
.L98:
	cmpl	$9, -20(%rbp)
	jle	.L100
	cmpl	$0, -24(%rbp)
	jne	.L101
	movq	-64(%rbp), %rcx
	movl	-28(%rbp), %eax
	cltq
	salq	$3, %rax
	leaq	0(,%rax,8), %rdx
	subq	%rax, %rdx
	leaq	(%rcx,%rdx), %rax
	addq	$6720, %rax
	movq	(%rax), %rax
	cmpq	-96(%rbp), %rax
	jae	.L101
	movl	-28(%rbp), %eax
	cltq
	salq	$3, %rax
	leaq	0(,%rax,8), %rdx
	subq	%rax, %rdx
	leaq	6720(%rdx), %rax
	addq	-64(%rbp), %rax
	leaq	8(%rax), %rcx
	movq	-88(%rbp), %rax
	movl	$48, %edx
	movq	%rax, %rsi
	movq	%rcx, %rdi
	call	memcpy
	movq	-64(%rbp), %rcx
	movl	-28(%rbp), %eax
	cltq
	salq	$3, %rax
	leaq	0(,%rax,8), %rdx
	subq	%rax, %rdx
	leaq	(%rcx,%rdx), %rax
	leaq	6720(%rax), %rdx
	movq	-96(%rbp), %rax
	movq	%rax, (%rdx)
.L101:
	movl	$0, %eax
	call	binary_name
	movq	%rax, -88(%rbp)
	movq	prof+82584(%rip), %rdx
	movq	prof+82592(%rip), %rax
	leaq	(%rdx,%rax), %rax
	movq	%rax, -96(%rbp)
	movl	$0, -24(%rbp)
	movl	$0, -20(%rbp)
	jmp	.L102
.L104:
	movl	-20(%rbp), %eax
	cltq
	salq	$3, %rax
	leaq	0(,%rax,8), %rdx
	subq	%rax, %rdx
	leaq	7280(%rdx), %rax
	addq	-64(%rbp), %rax
	leaq	8(%rax), %rcx
	movq	-88(%rbp), %rax
	movl	$48, %edx
	movq	%rcx, %rsi
	movq	%rax, %rdi
	call	strncmp
	testl	%eax, %eax
	jne	.L103
	movq	-64(%rbp), %rcx
	movl	-20(%rbp), %eax
	cltq
	salq	$3, %rax
	leaq	0(,%rax,8), %rdx
	subq	%rax, %rdx
	leaq	(%rcx,%rdx), %rax
	addq	$7280, %rax
	movq	(%rax), %rax
	movq	%rax, %rcx
	addq	-96(%rbp), %rcx
	movq	-64(%rbp), %rbx
	movl	-20(%rbp), %eax
	cltq
	salq	$3, %rax
	leaq	0(,%rax,8), %rdx
	subq	%rax, %rdx
	leaq	(%rbx,%rdx), %rax
	addq	$7280, %rax
	movq	%rcx, (%rax)
	movl	$1, -24(%rbp)
.L103:
	addl	$1, -20(%rbp)
.L102:
	cmpl	$9, -20(%rbp)
	jle	.L104
	movl	$0, -28(%rbp)
	movl	$0, -20(%rbp)
	jmp	.L105
.L107:
	movq	-64(%rbp), %rcx
	movl	-28(%rbp), %eax
	cltq
	salq	$3, %rax
	leaq	0(,%rax,8), %rdx
	subq	%rax, %rdx
	leaq	(%rcx,%rdx), %rax
	addq	$7280, %rax
	movq	(%rax), %rcx
	movq	-64(%rbp), %rbx
	movl	-20(%rbp), %eax
	cltq
	salq	$3, %rax
	leaq	0(,%rax,8), %rdx
	subq	%rax, %rdx
	leaq	(%rbx,%rdx), %rax
	addq	$7280, %rax
	movq	(%rax), %rax
	cmpq	%rax, %rcx
	jbe	.L106
	movl	-20(%rbp), %eax
	movl	%eax, -28(%rbp)
.L106:
	addl	$1, -20(%rbp)
.L105:
	cmpl	$9, -20(%rbp)
	jle	.L107
	cmpl	$0, -24(%rbp)
	jne	.L108
	movq	-64(%rbp), %rcx
	movl	-28(%rbp), %eax
	cltq
	salq	$3, %rax
	leaq	0(,%rax,8), %rdx
	subq	%rax, %rdx
	leaq	(%rcx,%rdx), %rax
	addq	$7280, %rax
	movq	(%rax), %rax
	cmpq	-96(%rbp), %rax
	jae	.L108
	movl	-28(%rbp), %eax
	cltq
	salq	$3, %rax
	leaq	0(,%rax,8), %rdx
	subq	%rax, %rdx
	leaq	7280(%rdx), %rax
	addq	-64(%rbp), %rax
	leaq	8(%rax), %rcx
	movq	-88(%rbp), %rax
	movl	$48, %edx
	movq	%rax, %rsi
	movq	%rcx, %rdi
	call	memcpy
	movq	-64(%rbp), %rcx
	movl	-28(%rbp), %eax
	cltq
	salq	$3, %rax
	leaq	0(,%rax,8), %rdx
	subq	%rax, %rdx
	leaq	(%rcx,%rdx), %rax
	leaq	7280(%rax), %rdx
	movq	-96(%rbp), %rax
	movq	%rax, (%rdx)
.L108:
	movl	$0, %eax
	call	binary_name
	movq	%rax, -88(%rbp)
	movq	prof+88488(%rip), %rdx
	movq	prof+88496(%rip), %rax
	leaq	(%rdx,%rax), %rax
	movq	%rax, -96(%rbp)
	movl	$0, -24(%rbp)
	movl	$0, -20(%rbp)
	jmp	.L109
.L111:
	movl	-20(%rbp), %eax
	cltq
	salq	$3, %rax
	leaq	0(,%rax,8), %rdx
	subq	%rax, %rdx
	leaq	7840(%rdx), %rax
	addq	-64(%rbp), %rax
	leaq	8(%rax), %rcx
	movq	-88(%rbp), %rax
	movl	$48, %edx
	movq	%rcx, %rsi
	movq	%rax, %rdi
	call	strncmp
	testl	%eax, %eax
	jne	.L110
	movq	-64(%rbp), %rcx
	movl	-20(%rbp), %eax
	cltq
	salq	$3, %rax
	leaq	0(,%rax,8), %rdx
	subq	%rax, %rdx
	leaq	(%rcx,%rdx), %rax
	addq	$7840, %rax
	movq	(%rax), %rax
	movq	%rax, %rcx
	addq	-96(%rbp), %rcx
	movq	-64(%rbp), %rbx
	movl	-20(%rbp), %eax
	cltq
	salq	$3, %rax
	leaq	0(,%rax,8), %rdx
	subq	%rax, %rdx
	leaq	(%rbx,%rdx), %rax
	addq	$7840, %rax
	movq	%rcx, (%rax)
	movl	$1, -24(%rbp)
.L110:
	addl	$1, -20(%rbp)
.L109:
	cmpl	$9, -20(%rbp)
	jle	.L111
	movl	$0, -28(%rbp)
	movl	$0, -20(%rbp)
	jmp	.L112
.L114:
	movq	-64(%rbp), %rcx
	movl	-28(%rbp), %eax
	cltq
	salq	$3, %rax
	leaq	0(,%rax,8), %rdx
	subq	%rax, %rdx
	leaq	(%rcx,%rdx), %rax
	addq	$7840, %rax
	movq	(%rax), %rcx
	movq	-64(%rbp), %rbx
	movl	-20(%rbp), %eax
	cltq
	salq	$3, %rax
	leaq	0(,%rax,8), %rdx
	subq	%rax, %rdx
	leaq	(%rbx,%rdx), %rax
	addq	$7840, %rax
	movq	(%rax), %rax
	cmpq	%rax, %rcx
	jbe	.L113
	movl	-20(%rbp), %eax
	movl	%eax, -28(%rbp)
.L113:
	addl	$1, -20(%rbp)
.L112:
	cmpl	$9, -20(%rbp)
	jle	.L114
	cmpl	$0, -24(%rbp)
	jne	.L115
	movq	-64(%rbp), %rcx
	movl	-28(%rbp), %eax
	cltq
	salq	$3, %rax
	leaq	0(,%rax,8), %rdx
	subq	%rax, %rdx
	leaq	(%rcx,%rdx), %rax
	addq	$7840, %rax
	movq	(%rax), %rax
	cmpq	-96(%rbp), %rax
	jae	.L115
	movl	-28(%rbp), %eax
	cltq
	salq	$3, %rax
	leaq	0(,%rax,8), %rdx
	subq	%rax, %rdx
	leaq	7840(%rdx), %rax
	addq	-64(%rbp), %rax
	leaq	8(%rax), %rcx
	movq	-88(%rbp), %rax
	movl	$48, %edx
	movq	%rax, %rsi
	movq	%rcx, %rdi
	call	memcpy
	movq	-64(%rbp), %rcx
	movl	-28(%rbp), %eax
	cltq
	salq	$3, %rax
	leaq	0(,%rax,8), %rdx
	subq	%rax, %rdx
	leaq	(%rcx,%rdx), %rax
	leaq	7840(%rax), %rdx
	movq	-96(%rbp), %rax
	movq	%rax, (%rdx)
.L115:
	movl	$0, %eax
	call	binary_name
	movq	%rax, -88(%rbp)
	movq	prof+94392(%rip), %rdx
	movq	prof+94400(%rip), %rax
	leaq	(%rdx,%rax), %rax
	movq	%rax, -96(%rbp)
	movl	$0, -24(%rbp)
	movl	$0, -20(%rbp)
	jmp	.L116
.L118:
	movl	-20(%rbp), %eax
	cltq
	salq	$3, %rax
	leaq	0(,%rax,8), %rdx
	subq	%rax, %rdx
	leaq	8400(%rdx), %rax
	addq	-64(%rbp), %rax
	leaq	8(%rax), %rcx
	movq	-88(%rbp), %rax
	movl	$48, %edx
	movq	%rcx, %rsi
	movq	%rax, %rdi
	call	strncmp
	testl	%eax, %eax
	jne	.L117
	movq	-64(%rbp), %rcx
	movl	-20(%rbp), %eax
	cltq
	salq	$3, %rax
	leaq	0(,%rax,8), %rdx
	subq	%rax, %rdx
	leaq	(%rcx,%rdx), %rax
	addq	$8400, %rax
	movq	(%rax), %rax
	movq	%rax, %rcx
	addq	-96(%rbp), %rcx
	movq	-64(%rbp), %rbx
	movl	-20(%rbp), %eax
	cltq
	salq	$3, %rax
	leaq	0(,%rax,8), %rdx
	subq	%rax, %rdx
	leaq	(%rbx,%rdx), %rax
	addq	$8400, %rax
	movq	%rcx, (%rax)
	movl	$1, -24(%rbp)
.L117:
	addl	$1, -20(%rbp)
.L116:
	cmpl	$9, -20(%rbp)
	jle	.L118
	movl	$0, -28(%rbp)
	movl	$0, -20(%rbp)
	jmp	.L119
.L121:
	movq	-64(%rbp), %rcx
	movl	-28(%rbp), %eax
	cltq
	salq	$3, %rax
	leaq	0(,%rax,8), %rdx
	subq	%rax, %rdx
	leaq	(%rcx,%rdx), %rax
	addq	$8400, %rax
	movq	(%rax), %rcx
	movq	-64(%rbp), %rbx
	movl	-20(%rbp), %eax
	cltq
	salq	$3, %rax
	leaq	0(,%rax,8), %rdx
	subq	%rax, %rdx
	leaq	(%rbx,%rdx), %rax
	addq	$8400, %rax
	movq	(%rax), %rax
	cmpq	%rax, %rcx
	jbe	.L120
	movl	-20(%rbp), %eax
	movl	%eax, -28(%rbp)
.L120:
	addl	$1, -20(%rbp)
.L119:
	cmpl	$9, -20(%rbp)
	jle	.L121
	cmpl	$0, -24(%rbp)
	jne	.L122
	movq	-64(%rbp), %rcx
	movl	-28(%rbp), %eax
	cltq
	salq	$3, %rax
	leaq	0(,%rax,8), %rdx
	subq	%rax, %rdx
	leaq	(%rcx,%rdx), %rax
	addq	$8400, %rax
	movq	(%rax), %rax
	cmpq	-96(%rbp), %rax
	jae	.L122
	movl	-28(%rbp), %eax
	cltq
	salq	$3, %rax
	leaq	0(,%rax,8), %rdx
	subq	%rax, %rdx
	leaq	8400(%rdx), %rax
	addq	-64(%rbp), %rax
	leaq	8(%rax), %rcx
	movq	-88(%rbp), %rax
	movl	$48, %edx
	movq	%rax, %rsi
	movq	%rcx, %rdi
	call	memcpy
	movq	-64(%rbp), %rcx
	movl	-28(%rbp), %eax
	cltq
	salq	$3, %rax
	leaq	0(,%rax,8), %rdx
	subq	%rax, %rdx
	leaq	(%rcx,%rdx), %rax
	leaq	8400(%rax), %rdx
	movq	-96(%rbp), %rax
	movq	%rax, (%rdx)
.L122:
	movl	$0, %eax
	call	binary_name
	movq	%rax, -88(%rbp)
	movq	prof+100296(%rip), %rdx
	movq	prof+100304(%rip), %rax
	leaq	(%rdx,%rax), %rax
	movq	%rax, -96(%rbp)
	movl	$0, -24(%rbp)
	movl	$0, -20(%rbp)
	jmp	.L123
.L125:
	movl	-20(%rbp), %eax
	cltq
	salq	$3, %rax
	leaq	0(,%rax,8), %rdx
	subq	%rax, %rdx
	leaq	8960(%rdx), %rax
	addq	-64(%rbp), %rax
	leaq	8(%rax), %rcx
	movq	-88(%rbp), %rax
	movl	$48, %edx
	movq	%rcx, %rsi
	movq	%rax, %rdi
	call	strncmp
	testl	%eax, %eax
	jne	.L124
	movq	-64(%rbp), %rcx
	movl	-20(%rbp), %eax
	cltq
	salq	$3, %rax
	leaq	0(,%rax,8), %rdx
	subq	%rax, %rdx
	leaq	(%rcx,%rdx), %rax
	addq	$8960, %rax
	movq	(%rax), %rax
	movq	%rax, %rcx
	addq	-96(%rbp), %rcx
	movq	-64(%rbp), %rbx
	movl	-20(%rbp), %eax
	cltq
	salq	$3, %rax
	leaq	0(,%rax,8), %rdx
	subq	%rax, %rdx
	leaq	(%rbx,%rdx), %rax
	addq	$8960, %rax
	movq	%rcx, (%rax)
	movl	$1, -24(%rbp)
.L124:
	addl	$1, -20(%rbp)
.L123:
	cmpl	$9, -20(%rbp)
	jle	.L125
	movl	$0, -28(%rbp)
	movl	$0, -20(%rbp)
	jmp	.L126
.L128:
	movq	-64(%rbp), %rcx
	movl	-28(%rbp), %eax
	cltq
	salq	$3, %rax
	leaq	0(,%rax,8), %rdx
	subq	%rax, %rdx
	leaq	(%rcx,%rdx), %rax
	addq	$8960, %rax
	movq	(%rax), %rcx
	movq	-64(%rbp), %rbx
	movl	-20(%rbp), %eax
	cltq
	salq	$3, %rax
	leaq	0(,%rax,8), %rdx
	subq	%rax, %rdx
	leaq	(%rbx,%rdx), %rax
	addq	$8960, %rax
	movq	(%rax), %rax
	cmpq	%rax, %rcx
	jbe	.L127
	movl	-20(%rbp), %eax
	movl	%eax, -28(%rbp)
.L127:
	addl	$1, -20(%rbp)
.L126:
	cmpl	$9, -20(%rbp)
	jle	.L128
	cmpl	$0, -24(%rbp)
	jne	.L129
	movq	-64(%rbp), %rcx
	movl	-28(%rbp), %eax
	cltq
	salq	$3, %rax
	leaq	0(,%rax,8), %rdx
	subq	%rax, %rdx
	leaq	(%rcx,%rdx), %rax
	addq	$8960, %rax
	movq	(%rax), %rax
	cmpq	-96(%rbp), %rax
	jae	.L129
	movl	-28(%rbp), %eax
	cltq
	salq	$3, %rax
	leaq	0(,%rax,8), %rdx
	subq	%rax, %rdx
	leaq	8960(%rdx), %rax
	addq	-64(%rbp), %rax
	leaq	8(%rax), %rcx
	movq	-88(%rbp), %rax
	movl	$48, %edx
	movq	%rax, %rsi
	movq	%rcx, %rdi
	call	memcpy
	movq	-64(%rbp), %rcx
	movl	-28(%rbp), %eax
	cltq
	salq	$3, %rax
	leaq	0(,%rax,8), %rdx
	subq	%rax, %rdx
	leaq	(%rcx,%rdx), %rax
	leaq	8960(%rax), %rdx
	movq	-96(%rbp), %rax
	movq	%rax, (%rdx)
.L129:
	movl	$0, %eax
	call	binary_name
	movq	%rax, -88(%rbp)
	movq	prof+106200(%rip), %rdx
	movq	prof+106208(%rip), %rax
	leaq	(%rdx,%rax), %rax
	movq	%rax, -96(%rbp)
	movl	$0, -24(%rbp)
	movl	$0, -20(%rbp)
	jmp	.L130
.L132:
	movl	-20(%rbp), %eax
	cltq
	salq	$3, %rax
	leaq	0(,%rax,8), %rdx
	subq	%rax, %rdx
	leaq	9520(%rdx), %rax
	addq	-64(%rbp), %rax
	leaq	8(%rax), %rcx
	movq	-88(%rbp), %rax
	movl	$48, %edx
	movq	%rcx, %rsi
	movq	%rax, %rdi
	call	strncmp
	testl	%eax, %eax
	jne	.L131
	movq	-64(%rbp), %rcx
	movl	-20(%rbp), %eax
	cltq
	salq	$3, %rax
	leaq	0(,%rax,8), %rdx
	subq	%rax, %rdx
	leaq	(%rcx,%rdx), %rax
	addq	$9520, %rax
	movq	(%rax), %rax
	movq	%rax, %rcx
	addq	-96(%rbp), %rcx
	movq	-64(%rbp), %rbx
	movl	-20(%rbp), %eax
	cltq
	salq	$3, %rax
	leaq	0(,%rax,8), %rdx
	subq	%rax, %rdx
	leaq	(%rbx,%rdx), %rax
	addq	$9520, %rax
	movq	%rcx, (%rax)
	movl	$1, -24(%rbp)
.L131:
	addl	$1, -20(%rbp)
.L130:
	cmpl	$9, -20(%rbp)
	jle	.L132
	movl	$0, -28(%rbp)
	movl	$0, -20(%rbp)
	jmp	.L133
.L135:
	movq	-64(%rbp), %rcx
	movl	-28(%rbp), %eax
	cltq
	salq	$3, %rax
	leaq	0(,%rax,8), %rdx
	subq	%rax, %rdx
	leaq	(%rcx,%rdx), %rax
	addq	$9520, %rax
	movq	(%rax), %rcx
	movq	-64(%rbp), %rbx
	movl	-20(%rbp), %eax
	cltq
	salq	$3, %rax
	leaq	0(,%rax,8), %rdx
	subq	%rax, %rdx
	leaq	(%rbx,%rdx), %rax
	addq	$9520, %rax
	movq	(%rax), %rax
	cmpq	%rax, %rcx
	jbe	.L134
	movl	-20(%rbp), %eax
	movl	%eax, -28(%rbp)
.L134:
	addl	$1, -20(%rbp)
.L133:
	cmpl	$9, -20(%rbp)
	jle	.L135
	cmpl	$0, -24(%rbp)
	jne	.L136
	movq	-64(%rbp), %rcx
	movl	-28(%rbp), %eax
	cltq
	salq	$3, %rax
	leaq	0(,%rax,8), %rdx
	subq	%rax, %rdx
	leaq	(%rcx,%rdx), %rax
	addq	$9520, %rax
	movq	(%rax), %rax
	cmpq	-96(%rbp), %rax
	jae	.L136
	movl	-28(%rbp), %eax
	cltq
	salq	$3, %rax
	leaq	0(,%rax,8), %rdx
	subq	%rax, %rdx
	leaq	9520(%rdx), %rax
	addq	-64(%rbp), %rax
	leaq	8(%rax), %rcx
	movq	-88(%rbp), %rax
	movl	$48, %edx
	movq	%rax, %rsi
	movq	%rcx, %rdi
	call	memcpy
	movq	-64(%rbp), %rcx
	movl	-28(%rbp), %eax
	cltq
	salq	$3, %rax
	leaq	0(,%rax,8), %rdx
	subq	%rax, %rdx
	leaq	(%rcx,%rdx), %rax
	leaq	9520(%rax), %rdx
	movq	-96(%rbp), %rax
	movq	%rax, (%rdx)
.L136:
	movl	$0, %eax
	call	binary_name
	movq	%rax, -88(%rbp)
	movq	prof+112104(%rip), %rdx
	movq	prof+112112(%rip), %rax
	leaq	(%rdx,%rax), %rax
	movq	%rax, -96(%rbp)
	movl	$0, -24(%rbp)
	movl	$0, -20(%rbp)
	jmp	.L137
.L139:
	movl	-20(%rbp), %eax
	cltq
	salq	$3, %rax
	leaq	0(,%rax,8), %rdx
	subq	%rax, %rdx
	leaq	10080(%rdx), %rax
	addq	-64(%rbp), %rax
	leaq	8(%rax), %rcx
	movq	-88(%rbp), %rax
	movl	$48, %edx
	movq	%rcx, %rsi
	movq	%rax, %rdi
	call	strncmp
	testl	%eax, %eax
	jne	.L138
	movq	-64(%rbp), %rcx
	movl	-20(%rbp), %eax
	cltq
	salq	$3, %rax
	leaq	0(,%rax,8), %rdx
	subq	%rax, %rdx
	leaq	(%rcx,%rdx), %rax
	addq	$10080, %rax
	movq	(%rax), %rax
	movq	%rax, %rcx
	addq	-96(%rbp), %rcx
	movq	-64(%rbp), %rbx
	movl	-20(%rbp), %eax
	cltq
	salq	$3, %rax
	leaq	0(,%rax,8), %rdx
	subq	%rax, %rdx
	leaq	(%rbx,%rdx), %rax
	addq	$10080, %rax
	movq	%rcx, (%rax)
	movl	$1, -24(%rbp)
.L138:
	addl	$1, -20(%rbp)
.L137:
	cmpl	$9, -20(%rbp)
	jle	.L139
	movl	$0, -28(%rbp)
	movl	$0, -20(%rbp)
	jmp	.L140
.L142:
	movq	-64(%rbp), %rcx
	movl	-28(%rbp), %eax
	cltq
	salq	$3, %rax
	leaq	0(,%rax,8), %rdx
	subq	%rax, %rdx
	leaq	(%rcx,%rdx), %rax
	addq	$10080, %rax
	movq	(%rax), %rcx
	movq	-64(%rbp), %rbx
	movl	-20(%rbp), %eax
	cltq
	salq	$3, %rax
	leaq	0(,%rax,8), %rdx
	subq	%rax, %rdx
	leaq	(%rbx,%rdx), %rax
	addq	$10080, %rax
	movq	(%rax), %rax
	cmpq	%rax, %rcx
	jbe	.L141
	movl	-20(%rbp), %eax
	movl	%eax, -28(%rbp)
.L141:
	addl	$1, -20(%rbp)
.L140:
	cmpl	$9, -20(%rbp)
	jle	.L142
	cmpl	$0, -24(%rbp)
	jne	.L143
	movq	-64(%rbp), %rcx
	movl	-28(%rbp), %eax
	cltq
	salq	$3, %rax
	leaq	0(,%rax,8), %rdx
	subq	%rax, %rdx
	leaq	(%rcx,%rdx), %rax
	addq	$10080, %rax
	movq	(%rax), %rax
	cmpq	-96(%rbp), %rax
	jae	.L143
	movl	-28(%rbp), %eax
	cltq
	salq	$3, %rax
	leaq	0(,%rax,8), %rdx
	subq	%rax, %rdx
	leaq	10080(%rdx), %rax
	addq	-64(%rbp), %rax
	leaq	8(%rax), %rcx
	movq	-88(%rbp), %rax
	movl	$48, %edx
	movq	%rax, %rsi
	movq	%rcx, %rdi
	call	memcpy
	movq	-64(%rbp), %rcx
	movl	-28(%rbp), %eax
	cltq
	salq	$3, %rax
	leaq	0(,%rax,8), %rdx
	subq	%rax, %rdx
	leaq	(%rcx,%rdx), %rax
	leaq	10080(%rax), %rdx
	movq	-96(%rbp), %rax
	movq	%rax, (%rdx)
.L143:
	movl	$0, %eax
	call	binary_name
	movq	%rax, -88(%rbp)
	movq	prof+118008(%rip), %rdx
	movq	prof+118016(%rip), %rax
	leaq	(%rdx,%rax), %rax
	movq	%rax, -96(%rbp)
	movl	$0, -24(%rbp)
	movl	$0, -20(%rbp)
	jmp	.L144
.L146:
	movl	-20(%rbp), %eax
	cltq
	salq	$3, %rax
	leaq	0(,%rax,8), %rdx
	subq	%rax, %rdx
	leaq	10640(%rdx), %rax
	addq	-64(%rbp), %rax
	leaq	8(%rax), %rcx
	movq	-88(%rbp), %rax
	movl	$48, %edx
	movq	%rcx, %rsi
	movq	%rax, %rdi
	call	strncmp
	testl	%eax, %eax
	jne	.L145
	movq	-64(%rbp), %rcx
	movl	-20(%rbp), %eax
	cltq
	salq	$3, %rax
	leaq	0(,%rax,8), %rdx
	subq	%rax, %rdx
	leaq	(%rcx,%rdx), %rax
	addq	$10640, %rax
	movq	(%rax), %rax
	movq	%rax, %rcx
	addq	-96(%rbp), %rcx
	movq	-64(%rbp), %rbx
	movl	-20(%rbp), %eax
	cltq
	salq	$3, %rax
	leaq	0(,%rax,8), %rdx
	subq	%rax, %rdx
	leaq	(%rbx,%rdx), %rax
	addq	$10640, %rax
	movq	%rcx, (%rax)
	movl	$1, -24(%rbp)
.L145:
	addl	$1, -20(%rbp)
.L144:
	cmpl	$9, -20(%rbp)
	jle	.L146
	movl	$0, -28(%rbp)
	movl	$0, -20(%rbp)
	jmp	.L147
.L149:
	movq	-64(%rbp), %rcx
	movl	-28(%rbp), %eax
	cltq
	salq	$3, %rax
	leaq	0(,%rax,8), %rdx
	subq	%rax, %rdx
	leaq	(%rcx,%rdx), %rax
	addq	$10640, %rax
	movq	(%rax), %rcx
	movq	-64(%rbp), %rbx
	movl	-20(%rbp), %eax
	cltq
	salq	$3, %rax
	leaq	0(,%rax,8), %rdx
	subq	%rax, %rdx
	leaq	(%rbx,%rdx), %rax
	addq	$10640, %rax
	movq	(%rax), %rax
	cmpq	%rax, %rcx
	jbe	.L148
	movl	-20(%rbp), %eax
	movl	%eax, -28(%rbp)
.L148:
	addl	$1, -20(%rbp)
.L147:
	cmpl	$9, -20(%rbp)
	jle	.L149
	cmpl	$0, -24(%rbp)
	jne	.L150
	movq	-64(%rbp), %rcx
	movl	-28(%rbp), %eax
	cltq
	salq	$3, %rax
	leaq	0(,%rax,8), %rdx
	subq	%rax, %rdx
	leaq	(%rcx,%rdx), %rax
	addq	$10640, %rax
	movq	(%rax), %rax
	cmpq	-96(%rbp), %rax
	jae	.L150
	movl	-28(%rbp), %eax
	cltq
	salq	$3, %rax
	leaq	0(,%rax,8), %rdx
	subq	%rax, %rdx
	leaq	10640(%rdx), %rax
	addq	-64(%rbp), %rax
	leaq	8(%rax), %rcx
	movq	-88(%rbp), %rax
	movl	$48, %edx
	movq	%rax, %rsi
	movq	%rcx, %rdi
	call	memcpy
	movq	-64(%rbp), %rcx
	movl	-28(%rbp), %eax
	cltq
	salq	$3, %rax
	leaq	0(,%rax,8), %rdx
	subq	%rax, %rdx
	leaq	(%rcx,%rdx), %rax
	leaq	10640(%rax), %rdx
	movq	-96(%rbp), %rax
	movq	%rax, (%rdx)
.L150:
	movl	$0, %eax
	call	binary_name
	movq	%rax, -88(%rbp)
	movq	prof+123912(%rip), %rdx
	movq	prof+123920(%rip), %rax
	leaq	(%rdx,%rax), %rax
	movq	%rax, -96(%rbp)
	movl	$0, -24(%rbp)
	movl	$0, -20(%rbp)
	jmp	.L151
.L153:
	movl	-20(%rbp), %eax
	cltq
	salq	$3, %rax
	leaq	0(,%rax,8), %rdx
	subq	%rax, %rdx
	leaq	11200(%rdx), %rax
	addq	-64(%rbp), %rax
	leaq	8(%rax), %rcx
	movq	-88(%rbp), %rax
	movl	$48, %edx
	movq	%rcx, %rsi
	movq	%rax, %rdi
	call	strncmp
	testl	%eax, %eax
	jne	.L152
	movq	-64(%rbp), %rcx
	movl	-20(%rbp), %eax
	cltq
	salq	$3, %rax
	leaq	0(,%rax,8), %rdx
	subq	%rax, %rdx
	leaq	(%rcx,%rdx), %rax
	addq	$11200, %rax
	movq	(%rax), %rax
	movq	%rax, %rcx
	addq	-96(%rbp), %rcx
	movq	-64(%rbp), %rbx
	movl	-20(%rbp), %eax
	cltq
	salq	$3, %rax
	leaq	0(,%rax,8), %rdx
	subq	%rax, %rdx
	leaq	(%rbx,%rdx), %rax
	addq	$11200, %rax
	movq	%rcx, (%rax)
	movl	$1, -24(%rbp)
.L152:
	addl	$1, -20(%rbp)
.L151:
	cmpl	$9, -20(%rbp)
	jle	.L153
	movl	$0, -28(%rbp)
	movl	$0, -20(%rbp)
	jmp	.L154
.L156:
	movq	-64(%rbp), %rcx
	movl	-28(%rbp), %eax
	cltq
	salq	$3, %rax
	leaq	0(,%rax,8), %rdx
	subq	%rax, %rdx
	leaq	(%rcx,%rdx), %rax
	addq	$11200, %rax
	movq	(%rax), %rcx
	movq	-64(%rbp), %rbx
	movl	-20(%rbp), %eax
	cltq
	salq	$3, %rax
	leaq	0(,%rax,8), %rdx
	subq	%rax, %rdx
	leaq	(%rbx,%rdx), %rax
	addq	$11200, %rax
	movq	(%rax), %rax
	cmpq	%rax, %rcx
	jbe	.L155
	movl	-20(%rbp), %eax
	movl	%eax, -28(%rbp)
.L155:
	addl	$1, -20(%rbp)
.L154:
	cmpl	$9, -20(%rbp)
	jle	.L156
	cmpl	$0, -24(%rbp)
	jne	.L157
	movq	-64(%rbp), %rcx
	movl	-28(%rbp), %eax
	cltq
	salq	$3, %rax
	leaq	0(,%rax,8), %rdx
	subq	%rax, %rdx
	leaq	(%rcx,%rdx), %rax
	addq	$11200, %rax
	movq	(%rax), %rax
	cmpq	-96(%rbp), %rax
	jae	.L157
	movl	-28(%rbp), %eax
	cltq
	salq	$3, %rax
	leaq	0(,%rax,8), %rdx
	subq	%rax, %rdx
	leaq	11200(%rdx), %rax
	addq	-64(%rbp), %rax
	leaq	8(%rax), %rcx
	movq	-88(%rbp), %rax
	movl	$48, %edx
	movq	%rax, %rsi
	movq	%rcx, %rdi
	call	memcpy
	movq	-64(%rbp), %rcx
	movl	-28(%rbp), %eax
	cltq
	salq	$3, %rax
	leaq	0(,%rax,8), %rdx
	subq	%rax, %rdx
	leaq	(%rcx,%rdx), %rax
	leaq	11200(%rax), %rdx
	movq	-96(%rbp), %rax
	movq	%rax, (%rdx)
.L157:
	movl	$0, %eax
	call	binary_name
	movq	%rax, -88(%rbp)
	movq	prof+129816(%rip), %rdx
	movq	prof+129824(%rip), %rax
	leaq	(%rdx,%rax), %rax
	movq	%rax, -96(%rbp)
	movl	$0, -24(%rbp)
	movl	$0, -20(%rbp)
	jmp	.L158
.L160:
	movl	-20(%rbp), %eax
	cltq
	salq	$3, %rax
	leaq	0(,%rax,8), %rdx
	subq	%rax, %rdx
	leaq	11760(%rdx), %rax
	addq	-64(%rbp), %rax
	leaq	8(%rax), %rcx
	movq	-88(%rbp), %rax
	movl	$48, %edx
	movq	%rcx, %rsi
	movq	%rax, %rdi
	call	strncmp
	testl	%eax, %eax
	jne	.L159
	movq	-64(%rbp), %rcx
	movl	-20(%rbp), %eax
	cltq
	salq	$3, %rax
	leaq	0(,%rax,8), %rdx
	subq	%rax, %rdx
	leaq	(%rcx,%rdx), %rax
	addq	$11760, %rax
	movq	(%rax), %rax
	movq	%rax, %rcx
	addq	-96(%rbp), %rcx
	movq	-64(%rbp), %rbx
	movl	-20(%rbp), %eax
	cltq
	salq	$3, %rax
	leaq	0(,%rax,8), %rdx
	subq	%rax, %rdx
	leaq	(%rbx,%rdx), %rax
	addq	$11760, %rax
	movq	%rcx, (%rax)
	movl	$1, -24(%rbp)
.L159:
	addl	$1, -20(%rbp)
.L158:
	cmpl	$9, -20(%rbp)
	jle	.L160
	movl	$0, -28(%rbp)
	movl	$0, -20(%rbp)
	jmp	.L161
.L163:
	movq	-64(%rbp), %rcx
	movl	-28(%rbp), %eax
	cltq
	salq	$3, %rax
	leaq	0(,%rax,8), %rdx
	subq	%rax, %rdx
	leaq	(%rcx,%rdx), %rax
	addq	$11760, %rax
	movq	(%rax), %rcx
	movq	-64(%rbp), %rbx
	movl	-20(%rbp), %eax
	cltq
	salq	$3, %rax
	leaq	0(,%rax,8), %rdx
	subq	%rax, %rdx
	leaq	(%rbx,%rdx), %rax
	addq	$11760, %rax
	movq	(%rax), %rax
	cmpq	%rax, %rcx
	jbe	.L162
	movl	-20(%rbp), %eax
	movl	%eax, -28(%rbp)
.L162:
	addl	$1, -20(%rbp)
.L161:
	cmpl	$9, -20(%rbp)
	jle	.L163
	cmpl	$0, -24(%rbp)
	jne	.L164
	movq	-64(%rbp), %rcx
	movl	-28(%rbp), %eax
	cltq
	salq	$3, %rax
	leaq	0(,%rax,8), %rdx
	subq	%rax, %rdx
	leaq	(%rcx,%rdx), %rax
	addq	$11760, %rax
	movq	(%rax), %rax
	cmpq	-96(%rbp), %rax
	jae	.L164
	movl	-28(%rbp), %eax
	cltq
	salq	$3, %rax
	leaq	0(,%rax,8), %rdx
	subq	%rax, %rdx
	leaq	11760(%rdx), %rax
	addq	-64(%rbp), %rax
	leaq	8(%rax), %rcx
	movq	-88(%rbp), %rax
	movl	$48, %edx
	movq	%rax, %rsi
	movq	%rcx, %rdi
	call	memcpy
	movq	-64(%rbp), %rcx
	movl	-28(%rbp), %eax
	cltq
	salq	$3, %rax
	leaq	0(,%rax,8), %rdx
	subq	%rax, %rdx
	leaq	(%rcx,%rdx), %rax
	leaq	11760(%rax), %rdx
	movq	-96(%rbp), %rax
	movq	%rax, (%rdx)
.L164:
	movl	$0, %eax
	call	binary_name
	movq	%rax, -88(%rbp)
	movq	prof+135720(%rip), %rdx
	movq	prof+135728(%rip), %rax
	leaq	(%rdx,%rax), %rax
	movq	%rax, -96(%rbp)
	movl	$0, -24(%rbp)
	movl	$0, -20(%rbp)
	jmp	.L165
.L167:
	movl	-20(%rbp), %eax
	cltq
	salq	$3, %rax
	leaq	0(,%rax,8), %rdx
	subq	%rax, %rdx
	leaq	12320(%rdx), %rax
	addq	-64(%rbp), %rax
	leaq	8(%rax), %rcx
	movq	-88(%rbp), %rax
	movl	$48, %edx
	movq	%rcx, %rsi
	movq	%rax, %rdi
	call	strncmp
	testl	%eax, %eax
	jne	.L166
	movq	-64(%rbp), %rcx
	movl	-20(%rbp), %eax
	cltq
	salq	$3, %rax
	leaq	0(,%rax,8), %rdx
	subq	%rax, %rdx
	leaq	(%rcx,%rdx), %rax
	addq	$12320, %rax
	movq	(%rax), %rax
	movq	%rax, %rcx
	addq	-96(%rbp), %rcx
	movq	-64(%rbp), %rbx
	movl	-20(%rbp), %eax
	cltq
	salq	$3, %rax
	leaq	0(,%rax,8), %rdx
	subq	%rax, %rdx
	leaq	(%rbx,%rdx), %rax
	addq	$12320, %rax
	movq	%rcx, (%rax)
	movl	$1, -24(%rbp)
.L166:
	addl	$1, -20(%rbp)
.L165:
	cmpl	$9, -20(%rbp)
	jle	.L167
	movl	$0, -28(%rbp)
	movl	$0, -20(%rbp)
	jmp	.L168
.L170:
	movq	-64(%rbp), %rcx
	movl	-28(%rbp), %eax
	cltq
	salq	$3, %rax
	leaq	0(,%rax,8), %rdx
	subq	%rax, %rdx
	leaq	(%rcx,%rdx), %rax
	addq	$12320, %rax
	movq	(%rax), %rcx
	movq	-64(%rbp), %rbx
	movl	-20(%rbp), %eax
	cltq
	salq	$3, %rax
	leaq	0(,%rax,8), %rdx
	subq	%rax, %rdx
	leaq	(%rbx,%rdx), %rax
	addq	$12320, %rax
	movq	(%rax), %rax
	cmpq	%rax, %rcx
	jbe	.L169
	movl	-20(%rbp), %eax
	movl	%eax, -28(%rbp)
.L169:
	addl	$1, -20(%rbp)
.L168:
	cmpl	$9, -20(%rbp)
	jle	.L170
	cmpl	$0, -24(%rbp)
	jne	.L171
	movq	-64(%rbp), %rcx
	movl	-28(%rbp), %eax
	cltq
	salq	$3, %rax
	leaq	0(,%rax,8), %rdx
	subq	%rax, %rdx
	leaq	(%rcx,%rdx), %rax
	addq	$12320, %rax
	movq	(%rax), %rax
	cmpq	-96(%rbp), %rax
	jae	.L171
	movl	-28(%rbp), %eax
	cltq
	salq	$3, %rax
	leaq	0(,%rax,8), %rdx
	subq	%rax, %rdx
	leaq	12320(%rdx), %rax
	addq	-64(%rbp), %rax
	leaq	8(%rax), %rcx
	movq	-88(%rbp), %rax
	movl	$48, %edx
	movq	%rax, %rsi
	movq	%rcx, %rdi
	call	memcpy
	movq	-64(%rbp), %rcx
	movl	-28(%rbp), %eax
	cltq
	salq	$3, %rax
	leaq	0(,%rax,8), %rdx
	subq	%rax, %rdx
	leaq	(%rcx,%rdx), %rax
	leaq	12320(%rax), %rdx
	movq	-96(%rbp), %rax
	movq	%rax, (%rdx)
.L171:
	movl	$0, %eax
	call	binary_name
	movq	%rax, -88(%rbp)
	movq	prof+141624(%rip), %rdx
	movq	prof+141632(%rip), %rax
	leaq	(%rdx,%rax), %rax
	movq	%rax, -96(%rbp)
	movl	$0, -24(%rbp)
	movl	$0, -20(%rbp)
	jmp	.L172
.L174:
	movl	-20(%rbp), %eax
	cltq
	salq	$3, %rax
	leaq	0(,%rax,8), %rdx
	subq	%rax, %rdx
	leaq	12880(%rdx), %rax
	addq	-64(%rbp), %rax
	leaq	8(%rax), %rcx
	movq	-88(%rbp), %rax
	movl	$48, %edx
	movq	%rcx, %rsi
	movq	%rax, %rdi
	call	strncmp
	testl	%eax, %eax
	jne	.L173
	movq	-64(%rbp), %rcx
	movl	-20(%rbp), %eax
	cltq
	salq	$3, %rax
	leaq	0(,%rax,8), %rdx
	subq	%rax, %rdx
	leaq	(%rcx,%rdx), %rax
	addq	$12880, %rax
	movq	(%rax), %rax
	movq	%rax, %rcx
	addq	-96(%rbp), %rcx
	movq	-64(%rbp), %rbx
	movl	-20(%rbp), %eax
	cltq
	salq	$3, %rax
	leaq	0(,%rax,8), %rdx
	subq	%rax, %rdx
	leaq	(%rbx,%rdx), %rax
	addq	$12880, %rax
	movq	%rcx, (%rax)
	movl	$1, -24(%rbp)
.L173:
	addl	$1, -20(%rbp)
.L172:
	cmpl	$9, -20(%rbp)
	jle	.L174
	movl	$0, -28(%rbp)
	movl	$0, -20(%rbp)
	jmp	.L175
.L177:
	movq	-64(%rbp), %rcx
	movl	-28(%rbp), %eax
	cltq
	salq	$3, %rax
	leaq	0(,%rax,8), %rdx
	subq	%rax, %rdx
	leaq	(%rcx,%rdx), %rax
	addq	$12880, %rax
	movq	(%rax), %rcx
	movq	-64(%rbp), %rbx
	movl	-20(%rbp), %eax
	cltq
	salq	$3, %rax
	leaq	0(,%rax,8), %rdx
	subq	%rax, %rdx
	leaq	(%rbx,%rdx), %rax
	addq	$12880, %rax
	movq	(%rax), %rax
	cmpq	%rax, %rcx
	jbe	.L176
	movl	-20(%rbp), %eax
	movl	%eax, -28(%rbp)
.L176:
	addl	$1, -20(%rbp)
.L175:
	cmpl	$9, -20(%rbp)
	jle	.L177
	cmpl	$0, -24(%rbp)
	jne	.L178
	movq	-64(%rbp), %rcx
	movl	-28(%rbp), %eax
	cltq
	salq	$3, %rax
	leaq	0(,%rax,8), %rdx
	subq	%rax, %rdx
	leaq	(%rcx,%rdx), %rax
	addq	$12880, %rax
	movq	(%rax), %rax
	cmpq	-96(%rbp), %rax
	jae	.L178
	movl	-28(%rbp), %eax
	cltq
	salq	$3, %rax
	leaq	0(,%rax,8), %rdx
	subq	%rax, %rdx
	leaq	12880(%rdx), %rax
	addq	-64(%rbp), %rax
	leaq	8(%rax), %rcx
	movq	-88(%rbp), %rax
	movl	$48, %edx
	movq	%rax, %rsi
	movq	%rcx, %rdi
	call	memcpy
	movq	-64(%rbp), %rcx
	movl	-28(%rbp), %eax
	cltq
	salq	$3, %rax
	leaq	0(,%rax,8), %rdx
	subq	%rax, %rdx
	leaq	(%rcx,%rdx), %rax
	leaq	12880(%rax), %rdx
	movq	-96(%rbp), %rax
	movq	%rax, (%rdx)
.L178:
	movl	$0, %eax
	call	binary_name
	movq	%rax, -88(%rbp)
	movq	prof+147528(%rip), %rdx
	movq	prof+147536(%rip), %rax
	leaq	(%rdx,%rax), %rax
	movq	%rax, -96(%rbp)
	movl	$0, -24(%rbp)
	movl	$0, -20(%rbp)
	jmp	.L179
.L181:
	movl	-20(%rbp), %eax
	cltq
	salq	$3, %rax
	leaq	0(,%rax,8), %rdx
	subq	%rax, %rdx
	leaq	13440(%rdx), %rax
	addq	-64(%rbp), %rax
	leaq	8(%rax), %rcx
	movq	-88(%rbp), %rax
	movl	$48, %edx
	movq	%rcx, %rsi
	movq	%rax, %rdi
	call	strncmp
	testl	%eax, %eax
	jne	.L180
	movq	-64(%rbp), %rcx
	movl	-20(%rbp), %eax
	cltq
	salq	$3, %rax
	leaq	0(,%rax,8), %rdx
	subq	%rax, %rdx
	leaq	(%rcx,%rdx), %rax
	addq	$13440, %rax
	movq	(%rax), %rax
	movq	%rax, %rcx
	addq	-96(%rbp), %rcx
	movq	-64(%rbp), %rbx
	movl	-20(%rbp), %eax
	cltq
	salq	$3, %rax
	leaq	0(,%rax,8), %rdx
	subq	%rax, %rdx
	leaq	(%rbx,%rdx), %rax
	addq	$13440, %rax
	movq	%rcx, (%rax)
	movl	$1, -24(%rbp)
.L180:
	addl	$1, -20(%rbp)
.L179:
	cmpl	$9, -20(%rbp)
	jle	.L181
	movl	$0, -28(%rbp)
	movl	$0, -20(%rbp)
	jmp	.L182
.L184:
	movq	-64(%rbp), %rcx
	movl	-28(%rbp), %eax
	cltq
	salq	$3, %rax
	leaq	0(,%rax,8), %rdx
	subq	%rax, %rdx
	leaq	(%rcx,%rdx), %rax
	addq	$13440, %rax
	movq	(%rax), %rcx
	movq	-64(%rbp), %rbx
	movl	-20(%rbp), %eax
	cltq
	salq	$3, %rax
	leaq	0(,%rax,8), %rdx
	subq	%rax, %rdx
	leaq	(%rbx,%rdx), %rax
	addq	$13440, %rax
	movq	(%rax), %rax
	cmpq	%rax, %rcx
	jbe	.L183
	movl	-20(%rbp), %eax
	movl	%eax, -28(%rbp)
.L183:
	addl	$1, -20(%rbp)
.L182:
	cmpl	$9, -20(%rbp)
	jle	.L184
	cmpl	$0, -24(%rbp)
	jne	.L185
	movq	-64(%rbp), %rcx
	movl	-28(%rbp), %eax
	cltq
	salq	$3, %rax
	leaq	0(,%rax,8), %rdx
	subq	%rax, %rdx
	leaq	(%rcx,%rdx), %rax
	addq	$13440, %rax
	movq	(%rax), %rax
	cmpq	-96(%rbp), %rax
	jae	.L185
	movl	-28(%rbp), %eax
	cltq
	salq	$3, %rax
	leaq	0(,%rax,8), %rdx
	subq	%rax, %rdx
	leaq	13440(%rdx), %rax
	addq	-64(%rbp), %rax
	leaq	8(%rax), %rcx
	movq	-88(%rbp), %rax
	movl	$48, %edx
	movq	%rax, %rsi
	movq	%rcx, %rdi
	call	memcpy
	movq	-64(%rbp), %rcx
	movl	-28(%rbp), %eax
	cltq
	salq	$3, %rax
	leaq	0(,%rax,8), %rdx
	subq	%rax, %rdx
	leaq	(%rcx,%rdx), %rax
	leaq	13440(%rax), %rdx
	movq	-96(%rbp), %rax
	movq	%rax, (%rdx)
.L185:
	movl	$0, %eax
	call	binary_name
	movq	%rax, -88(%rbp)
	movq	prof+153432(%rip), %rdx
	movq	prof+153440(%rip), %rax
	leaq	(%rdx,%rax), %rax
	movq	%rax, -96(%rbp)
	movl	$0, -24(%rbp)
	movl	$0, -20(%rbp)
	jmp	.L186
.L188:
	movl	-20(%rbp), %eax
	cltq
	salq	$3, %rax
	leaq	0(,%rax,8), %rdx
	subq	%rax, %rdx
	leaq	14000(%rdx), %rax
	addq	-64(%rbp), %rax
	leaq	8(%rax), %rcx
	movq	-88(%rbp), %rax
	movl	$48, %edx
	movq	%rcx, %rsi
	movq	%rax, %rdi
	call	strncmp
	testl	%eax, %eax
	jne	.L187
	movq	-64(%rbp), %rcx
	movl	-20(%rbp), %eax
	cltq
	salq	$3, %rax
	leaq	0(,%rax,8), %rdx
	subq	%rax, %rdx
	leaq	(%rcx,%rdx), %rax
	addq	$14000, %rax
	movq	(%rax), %rax
	movq	%rax, %rcx
	addq	-96(%rbp), %rcx
	movq	-64(%rbp), %rbx
	movl	-20(%rbp), %eax
	cltq
	salq	$3, %rax
	leaq	0(,%rax,8), %rdx
	subq	%rax, %rdx
	leaq	(%rbx,%rdx), %rax
	addq	$14000, %rax
	movq	%rcx, (%rax)
	movl	$1, -24(%rbp)
.L187:
	addl	$1, -20(%rbp)
.L186:
	cmpl	$9, -20(%rbp)
	jle	.L188
	movl	$0, -28(%rbp)
	movl	$0, -20(%rbp)
	jmp	.L189
.L191:
	movq	-64(%rbp), %rcx
	movl	-28(%rbp), %eax
	cltq
	salq	$3, %rax
	leaq	0(,%rax,8), %rdx
	subq	%rax, %rdx
	leaq	(%rcx,%rdx), %rax
	addq	$14000, %rax
	movq	(%rax), %rcx
	movq	-64(%rbp), %rbx
	movl	-20(%rbp), %eax
	cltq
	salq	$3, %rax
	leaq	0(,%rax,8), %rdx
	subq	%rax, %rdx
	leaq	(%rbx,%rdx), %rax
	addq	$14000, %rax
	movq	(%rax), %rax
	cmpq	%rax, %rcx
	jbe	.L190
	movl	-20(%rbp), %eax
	movl	%eax, -28(%rbp)
.L190:
	addl	$1, -20(%rbp)
.L189:
	cmpl	$9, -20(%rbp)
	jle	.L191
	cmpl	$0, -24(%rbp)
	jne	.L192
	movq	-64(%rbp), %rcx
	movl	-28(%rbp), %eax
	cltq
	salq	$3, %rax
	leaq	0(,%rax,8), %rdx
	subq	%rax, %rdx
	leaq	(%rcx,%rdx), %rax
	addq	$14000, %rax
	movq	(%rax), %rax
	cmpq	-96(%rbp), %rax
	jae	.L192
	movl	-28(%rbp), %eax
	cltq
	salq	$3, %rax
	leaq	0(,%rax,8), %rdx
	subq	%rax, %rdx
	leaq	14000(%rdx), %rax
	addq	-64(%rbp), %rax
	leaq	8(%rax), %rcx
	movq	-88(%rbp), %rax
	movl	$48, %edx
	movq	%rax, %rsi
	movq	%rcx, %rdi
	call	memcpy
	movq	-64(%rbp), %rcx
	movl	-28(%rbp), %eax
	cltq
	salq	$3, %rax
	leaq	0(,%rax,8), %rdx
	subq	%rax, %rdx
	leaq	(%rcx,%rdx), %rax
	leaq	14000(%rax), %rdx
	movq	-96(%rbp), %rax
	movq	%rax, (%rdx)
.L192:
	movl	$0, %eax
	call	binary_name
	movq	%rax, -88(%rbp)
	movq	prof+159336(%rip), %rdx
	movq	prof+159344(%rip), %rax
	leaq	(%rdx,%rax), %rax
	movq	%rax, -96(%rbp)
	movl	$0, -24(%rbp)
	movl	$0, -20(%rbp)
	jmp	.L193
.L195:
	movl	-20(%rbp), %eax
	cltq
	salq	$3, %rax
	leaq	0(,%rax,8), %rdx
	subq	%rax, %rdx
	leaq	14560(%rdx), %rax
	addq	-64(%rbp), %rax
	leaq	8(%rax), %rcx
	movq	-88(%rbp), %rax
	movl	$48, %edx
	movq	%rcx, %rsi
	movq	%rax, %rdi
	call	strncmp
	testl	%eax, %eax
	jne	.L194
	movq	-64(%rbp), %rcx
	movl	-20(%rbp), %eax
	cltq
	salq	$3, %rax
	leaq	0(,%rax,8), %rdx
	subq	%rax, %rdx
	leaq	(%rcx,%rdx), %rax
	addq	$14560, %rax
	movq	(%rax), %rax
	movq	%rax, %rcx
	addq	-96(%rbp), %rcx
	movq	-64(%rbp), %rbx
	movl	-20(%rbp), %eax
	cltq
	salq	$3, %rax
	leaq	0(,%rax,8), %rdx
	subq	%rax, %rdx
	leaq	(%rbx,%rdx), %rax
	addq	$14560, %rax
	movq	%rcx, (%rax)
	movl	$1, -24(%rbp)
.L194:
	addl	$1, -20(%rbp)
.L193:
	cmpl	$9, -20(%rbp)
	jle	.L195
	movl	$0, -28(%rbp)
	movl	$0, -20(%rbp)
	jmp	.L196
.L198:
	movq	-64(%rbp), %rcx
	movl	-28(%rbp), %eax
	cltq
	salq	$3, %rax
	leaq	0(,%rax,8), %rdx
	subq	%rax, %rdx
	leaq	(%rcx,%rdx), %rax
	addq	$14560, %rax
	movq	(%rax), %rcx
	movq	-64(%rbp), %rbx
	movl	-20(%rbp), %eax
	cltq
	salq	$3, %rax
	leaq	0(,%rax,8), %rdx
	subq	%rax, %rdx
	leaq	(%rbx,%rdx), %rax
	addq	$14560, %rax
	movq	(%rax), %rax
	cmpq	%rax, %rcx
	jbe	.L197
	movl	-20(%rbp), %eax
	movl	%eax, -28(%rbp)
.L197:
	addl	$1, -20(%rbp)
.L196:
	cmpl	$9, -20(%rbp)
	jle	.L198
	cmpl	$0, -24(%rbp)
	jne	.L199
	movq	-64(%rbp), %rcx
	movl	-28(%rbp), %eax
	cltq
	salq	$3, %rax
	leaq	0(,%rax,8), %rdx
	subq	%rax, %rdx
	leaq	(%rcx,%rdx), %rax
	addq	$14560, %rax
	movq	(%rax), %rax
	cmpq	-96(%rbp), %rax
	jae	.L199
	movl	-28(%rbp), %eax
	cltq
	salq	$3, %rax
	leaq	0(,%rax,8), %rdx
	subq	%rax, %rdx
	leaq	14560(%rdx), %rax
	addq	-64(%rbp), %rax
	leaq	8(%rax), %rcx
	movq	-88(%rbp), %rax
	movl	$48, %edx
	movq	%rax, %rsi
	movq	%rcx, %rdi
	call	memcpy
	movq	-64(%rbp), %rcx
	movl	-28(%rbp), %eax
	cltq
	salq	$3, %rax
	leaq	0(,%rax,8), %rdx
	subq	%rax, %rdx
	leaq	(%rcx,%rdx), %rax
	leaq	14560(%rax), %rdx
	movq	-96(%rbp), %rax
	movq	%rax, (%rdx)
.L199:
	movl	$0, %eax
	call	binary_name
	movq	%rax, -88(%rbp)
	movq	prof+165240(%rip), %rdx
	movq	prof+165248(%rip), %rax
	leaq	(%rdx,%rax), %rax
	movq	%rax, -96(%rbp)
	movl	$0, -24(%rbp)
	movl	$0, -20(%rbp)
	jmp	.L200
.L202:
	movl	-20(%rbp), %eax
	cltq
	salq	$3, %rax
	leaq	0(,%rax,8), %rdx
	subq	%rax, %rdx
	leaq	15120(%rdx), %rax
	addq	-64(%rbp), %rax
	leaq	8(%rax), %rcx
	movq	-88(%rbp), %rax
	movl	$48, %edx
	movq	%rcx, %rsi
	movq	%rax, %rdi
	call	strncmp
	testl	%eax, %eax
	jne	.L201
	movq	-64(%rbp), %rcx
	movl	-20(%rbp), %eax
	cltq
	salq	$3, %rax
	leaq	0(,%rax,8), %rdx
	subq	%rax, %rdx
	leaq	(%rcx,%rdx), %rax
	addq	$15120, %rax
	movq	(%rax), %rax
	movq	%rax, %rcx
	addq	-96(%rbp), %rcx
	movq	-64(%rbp), %rbx
	movl	-20(%rbp), %eax
	cltq
	salq	$3, %rax
	leaq	0(,%rax,8), %rdx
	subq	%rax, %rdx
	leaq	(%rbx,%rdx), %rax
	addq	$15120, %rax
	movq	%rcx, (%rax)
	movl	$1, -24(%rbp)
.L201:
	addl	$1, -20(%rbp)
.L200:
	cmpl	$9, -20(%rbp)
	jle	.L202
	movl	$0, -28(%rbp)
	movl	$0, -20(%rbp)
	jmp	.L203
.L205:
	movq	-64(%rbp), %rcx
	movl	-28(%rbp), %eax
	cltq
	salq	$3, %rax
	leaq	0(,%rax,8), %rdx
	subq	%rax, %rdx
	leaq	(%rcx,%rdx), %rax
	addq	$15120, %rax
	movq	(%rax), %rcx
	movq	-64(%rbp), %rbx
	movl	-20(%rbp), %eax
	cltq
	salq	$3, %rax
	leaq	0(,%rax,8), %rdx
	subq	%rax, %rdx
	leaq	(%rbx,%rdx), %rax
	addq	$15120, %rax
	movq	(%rax), %rax
	cmpq	%rax, %rcx
	jbe	.L204
	movl	-20(%rbp), %eax
	movl	%eax, -28(%rbp)
.L204:
	addl	$1, -20(%rbp)
.L203:
	cmpl	$9, -20(%rbp)
	jle	.L205
	cmpl	$0, -24(%rbp)
	jne	.L206
	movq	-64(%rbp), %rcx
	movl	-28(%rbp), %eax
	cltq
	salq	$3, %rax
	leaq	0(,%rax,8), %rdx
	subq	%rax, %rdx
	leaq	(%rcx,%rdx), %rax
	addq	$15120, %rax
	movq	(%rax), %rax
	cmpq	-96(%rbp), %rax
	jae	.L206
	movl	-28(%rbp), %eax
	cltq
	salq	$3, %rax
	leaq	0(,%rax,8), %rdx
	subq	%rax, %rdx
	leaq	15120(%rdx), %rax
	addq	-64(%rbp), %rax
	leaq	8(%rax), %rcx
	movq	-88(%rbp), %rax
	movl	$48, %edx
	movq	%rax, %rsi
	movq	%rcx, %rdi
	call	memcpy
	movq	-64(%rbp), %rcx
	movl	-28(%rbp), %eax
	cltq
	salq	$3, %rax
	leaq	0(,%rax,8), %rdx
	subq	%rax, %rdx
	leaq	(%rcx,%rdx), %rax
	leaq	15120(%rax), %rdx
	movq	-96(%rbp), %rax
	movq	%rax, (%rdx)
.L206:
	movl	$0, %eax
	call	binary_name
	movq	%rax, -88(%rbp)
	movq	prof+171144(%rip), %rdx
	movq	prof+171152(%rip), %rax
	leaq	(%rdx,%rax), %rax
	movq	%rax, -96(%rbp)
	movl	$0, -24(%rbp)
	movl	$0, -20(%rbp)
	jmp	.L207
.L209:
	movl	-20(%rbp), %eax
	cltq
	salq	$3, %rax
	leaq	0(,%rax,8), %rdx
	subq	%rax, %rdx
	leaq	15680(%rdx), %rax
	addq	-64(%rbp), %rax
	leaq	8(%rax), %rcx
	movq	-88(%rbp), %rax
	movl	$48, %edx
	movq	%rcx, %rsi
	movq	%rax, %rdi
	call	strncmp
	testl	%eax, %eax
	jne	.L208
	movq	-64(%rbp), %rcx
	movl	-20(%rbp), %eax
	cltq
	salq	$3, %rax
	leaq	0(,%rax,8), %rdx
	subq	%rax, %rdx
	leaq	(%rcx,%rdx), %rax
	addq	$15680, %rax
	movq	(%rax), %rax
	movq	%rax, %rcx
	addq	-96(%rbp), %rcx
	movq	-64(%rbp), %rbx
	movl	-20(%rbp), %eax
	cltq
	salq	$3, %rax
	leaq	0(,%rax,8), %rdx
	subq	%rax, %rdx
	leaq	(%rbx,%rdx), %rax
	addq	$15680, %rax
	movq	%rcx, (%rax)
	movl	$1, -24(%rbp)
.L208:
	addl	$1, -20(%rbp)
.L207:
	cmpl	$9, -20(%rbp)
	jle	.L209
	movl	$0, -28(%rbp)
	movl	$0, -20(%rbp)
	jmp	.L210
.L212:
	movq	-64(%rbp), %rcx
	movl	-28(%rbp), %eax
	cltq
	salq	$3, %rax
	leaq	0(,%rax,8), %rdx
	subq	%rax, %rdx
	leaq	(%rcx,%rdx), %rax
	addq	$15680, %rax
	movq	(%rax), %rcx
	movq	-64(%rbp), %rbx
	movl	-20(%rbp), %eax
	cltq
	salq	$3, %rax
	leaq	0(,%rax,8), %rdx
	subq	%rax, %rdx
	leaq	(%rbx,%rdx), %rax
	addq	$15680, %rax
	movq	(%rax), %rax
	cmpq	%rax, %rcx
	jbe	.L211
	movl	-20(%rbp), %eax
	movl	%eax, -28(%rbp)
.L211:
	addl	$1, -20(%rbp)
.L210:
	cmpl	$9, -20(%rbp)
	jle	.L212
	cmpl	$0, -24(%rbp)
	jne	.L213
	movq	-64(%rbp), %rcx
	movl	-28(%rbp), %eax
	cltq
	salq	$3, %rax
	leaq	0(,%rax,8), %rdx
	subq	%rax, %rdx
	leaq	(%rcx,%rdx), %rax
	addq	$15680, %rax
	movq	(%rax), %rax
	cmpq	-96(%rbp), %rax
	jae	.L213
	movl	-28(%rbp), %eax
	cltq
	salq	$3, %rax
	leaq	0(,%rax,8), %rdx
	subq	%rax, %rdx
	leaq	15680(%rdx), %rax
	addq	-64(%rbp), %rax
	leaq	8(%rax), %rcx
	movq	-88(%rbp), %rax
	movl	$48, %edx
	movq	%rax, %rsi
	movq	%rcx, %rdi
	call	memcpy
	movq	-64(%rbp), %rcx
	movl	-28(%rbp), %eax
	cltq
	salq	$3, %rax
	leaq	0(,%rax,8), %rdx
	subq	%rax, %rdx
	leaq	(%rcx,%rdx), %rax
	leaq	15680(%rax), %rdx
	movq	-96(%rbp), %rax
	movq	%rax, (%rdx)
.L213:
	movl	$0, %eax
	call	binary_name
	movq	%rax, -88(%rbp)
	movq	prof+177048(%rip), %rdx
	movq	prof+177056(%rip), %rax
	leaq	(%rdx,%rax), %rax
	movq	%rax, -96(%rbp)
	movl	$0, -24(%rbp)
	movl	$0, -20(%rbp)
	jmp	.L214
.L216:
	movl	-20(%rbp), %eax
	cltq
	salq	$3, %rax
	leaq	0(,%rax,8), %rdx
	subq	%rax, %rdx
	leaq	16240(%rdx), %rax
	addq	-64(%rbp), %rax
	leaq	8(%rax), %rcx
	movq	-88(%rbp), %rax
	movl	$48, %edx
	movq	%rcx, %rsi
	movq	%rax, %rdi
	call	strncmp
	testl	%eax, %eax
	jne	.L215
	movq	-64(%rbp), %rcx
	movl	-20(%rbp), %eax
	cltq
	salq	$3, %rax
	leaq	0(,%rax,8), %rdx
	subq	%rax, %rdx
	leaq	(%rcx,%rdx), %rax
	addq	$16240, %rax
	movq	(%rax), %rax
	movq	%rax, %rcx
	addq	-96(%rbp), %rcx
	movq	-64(%rbp), %rbx
	movl	-20(%rbp), %eax
	cltq
	salq	$3, %rax
	leaq	0(,%rax,8), %rdx
	subq	%rax, %rdx
	leaq	(%rbx,%rdx), %rax
	addq	$16240, %rax
	movq	%rcx, (%rax)
	movl	$1, -24(%rbp)
.L215:
	addl	$1, -20(%rbp)
.L214:
	cmpl	$9, -20(%rbp)
	jle	.L216
	movl	$0, -28(%rbp)
	movl	$0, -20(%rbp)
	jmp	.L217
.L219:
	movq	-64(%rbp), %rcx
	movl	-28(%rbp), %eax
	cltq
	salq	$3, %rax
	leaq	0(,%rax,8), %rdx
	subq	%rax, %rdx
	leaq	(%rcx,%rdx), %rax
	addq	$16240, %rax
	movq	(%rax), %rcx
	movq	-64(%rbp), %rbx
	movl	-20(%rbp), %eax
	cltq
	salq	$3, %rax
	leaq	0(,%rax,8), %rdx
	subq	%rax, %rdx
	leaq	(%rbx,%rdx), %rax
	addq	$16240, %rax
	movq	(%rax), %rax
	cmpq	%rax, %rcx
	jbe	.L218
	movl	-20(%rbp), %eax
	movl	%eax, -28(%rbp)
.L218:
	addl	$1, -20(%rbp)
.L217:
	cmpl	$9, -20(%rbp)
	jle	.L219
	cmpl	$0, -24(%rbp)
	jne	.L220
	movq	-64(%rbp), %rcx
	movl	-28(%rbp), %eax
	cltq
	salq	$3, %rax
	leaq	0(,%rax,8), %rdx
	subq	%rax, %rdx
	leaq	(%rcx,%rdx), %rax
	addq	$16240, %rax
	movq	(%rax), %rax
	cmpq	-96(%rbp), %rax
	jae	.L220
	movl	-28(%rbp), %eax
	cltq
	salq	$3, %rax
	leaq	0(,%rax,8), %rdx
	subq	%rax, %rdx
	leaq	16240(%rdx), %rax
	addq	-64(%rbp), %rax
	leaq	8(%rax), %rcx
	movq	-88(%rbp), %rax
	movl	$48, %edx
	movq	%rax, %rsi
	movq	%rcx, %rdi
	call	memcpy
	movq	-64(%rbp), %rcx
	movl	-28(%rbp), %eax
	cltq
	salq	$3, %rax
	leaq	0(,%rax,8), %rdx
	subq	%rax, %rdx
	leaq	(%rcx,%rdx), %rax
	leaq	16240(%rax), %rdx
	movq	-96(%rbp), %rax
	movq	%rax, (%rdx)
.L220:
	movq	-48(%rbp), %rax
	movl	$183024, %esi
	movq	%rax, %rdi
	call	munmap
.L7:
	addq	$88, %rsp
	popq	%rbx
	leave
	.cfi_def_cfa 7, 8
	ret
	.cfi_endproc
.LFE4:
	.size	save_cnt, .-save_cnt
	.section	.dtors,"aw",@progbits
	.align 8
	.quad	save_cnt
	.text
.globl strnlen3
	.type	strnlen3, @function
strnlen3:
.LFB5:
	.cfi_startproc
	pushq	%rbp
	.cfi_def_cfa_offset 16
	movq	%rsp, %rbp
	.cfi_offset 6, -16
	.cfi_def_cfa_register 6
	movq	%rdi, -40(%rbp)
	movq	%rsi, -48(%rbp)
	movq	-40(%rbp), %rax
	movq	%rax, -8(%rbp)
	jmp	.L222
.L224:
	addq	$1, -8(%rbp)
.L222:
	movq	-8(%rbp), %rdx
	movq	-40(%rbp), %rax
	movq	%rdx, %rcx
	subq	%rax, %rcx
	movq	%rcx, %rax
	cmpq	-48(%rbp), %rax
	je	.L223
	movq	-8(%rbp), %rax
	movzbl	(%rax), %eax
	testb	%al, %al
	jne	.L224
.L223:
	movq	-8(%rbp), %rdx
	movq	-40(%rbp), %rax
	movq	%rdx, %rcx
	subq	%rax, %rcx
	movq	%rcx, %rax
	leave
	.cfi_def_cfa 7, 8
	ret
	.cfi_endproc
.LFE5:
	.size	strnlen3, .-strnlen3
	.comm	y,8,8
.globl strnlen
	.type	strnlen, @function
strnlen:
.LFB6:
	.cfi_startproc
	pushq	%rbp
	.cfi_def_cfa_offset 16
	movq	%rsp, %rbp
	.cfi_offset 6, -16
	.cfi_def_cfa_register 6
	pushq	%rbx
	subq	$88, %rsp
	movq	%rdi, -72(%rbp)
	movq	%rsi, -80(%rbp)
	.cfi_offset 3, -24
	call	rdtsc
	movq	%rax, prof+5848(%rip)
	movq	-80(%rbp), %rdx
	movq	-72(%rbp), %rax
	movq	%rdx, %rsi
	movq	%rax, %rdi
	call	strnlen3
	movq	%rax, -48(%rbp)
	movq	prof+5848(%rip), %rdx
	movq	prof+5856(%rip), %rax
	cmpq	%rax, %rdx
	je	.L226
	movq	prof+5848(%rip), %rdx
	movq	prof+5856(%rip), %rax
	subq	%rax, %rdx
	movabsq	$-2147483649, %rax
	cmpq	%rax, %rdx
	ja	.L226
	movq	prof+5848(%rip), %rdx
	movq	prof+5856(%rip), %rax
	movq	%rdx, %rcx
	subq	%rax, %rcx
	movq	%rcx, %rax
	bsrq	%rax, %rax
	xorq	$63, %rax
	movl	$63, %edx
	movl	%edx, %ebx
	subl	%eax, %ebx
	movl	%ebx, %eax
	movslq	%eax, %rdx
	addq	$600, %rdx
	movq	prof+8(,%rdx,8), %rdx
	addq	$1, %rdx
	cltq
	addq	$600, %rax
	movq	%rdx, prof+8(,%rax,8)
.L226:
	call	rdtsc
	movq	%rax, prof+5856(%rip)
	movq	b_strlen(%rip), %rax
	andl	$2, %eax
	testq	%rax, %rax
	je	.L227
	movq	-72(%rbp), %rdx
	movq	y(%rip), %rax
	subq	%rax, %rdx
	movq	%rdx, %rax
	sarq	$63, %rax
	shrq	$58, %rax
	addq	%rax, %rdx
	andl	$63, %edx
	movq	%rdx, %rsi
	subq	%rax, %rsi
	movq	%rsi, %rax
	jmp	.L228
.L227:
	movq	-72(%rbp), %rax
	andl	$63, %eax
.L228:
	leaq	664(%rax), %rdx
	movq	prof+8(,%rdx,8), %rdx
	addq	$1, %rdx
	addq	$664, %rax
	movq	%rdx, prof+8(,%rax,8)
	movq	prof+5832(%rip), %rax
	addq	$1, %rax
	movq	%rax, prof+5832(%rip)
	cmpq	$16, -48(%rbp)
	ja	.L229
	movq	prof(%rip), %rax
	addq	$1, %rax
	movq	%rax, prof(%rip)
.L229:
	movq	b_strlen(%rip), %rax
	andl	$8, %eax
	testq	%rax, %rax
	jne	.L230
	movq	-72(%rbp), %rax
	addq	-48(%rbp), %rax
	movq	%rax, %rdx
	shrq	$4, %rdx
	movq	-72(%rbp), %rax
	shrq	$4, %rax
	movq	%rdx, %rcx
	subq	%rax, %rcx
	movq	%rcx, %rax
	addq	$1, %rax
	jmp	.L231
.L230:
	movq	-48(%rbp), %rax
.L231:
	movq	%rax, -24(%rbp)
	movq	prof+5856(%rip), %rdx
	movq	prof+5848(%rip), %rax
	movq	%rdx, %rbx
	subq	%rax, %rbx
	movq	%rbx, %rax
	cmpq	$1999999, %rax
	ja	.L232
	cmpq	$999, -24(%rbp)
	jbe	.L233
	movq	$999, -24(%rbp)
.L233:
	movq	-24(%rbp), %rsi
	movq	%rsi, -88(%rbp)
	movabsq	$-3689348814741910323, %rdx
	movq	-88(%rbp), %rax
	mulq	%rdx
	movq	%rdx, %rax
	shrq	$3, %rax
	leaq	100(%rax), %rdx
	movq	prof+8(,%rdx,8), %rdx
	addq	$1, %rdx
	addq	$100, %rax
	movq	%rdx, prof+8(,%rax,8)
	movq	-24(%rbp), %rcx
	movq	%rcx, -88(%rbp)
	movabsq	$-3689348814741910323, %rdx
	movq	-88(%rbp), %rax
	mulq	%rdx
	movq	%rdx, %rax
	shrq	$3, %rax
	leaq	300(%rax), %rdx
	movq	prof+8(,%rdx,8), %rdx
	movq	prof+5856(%rip), %rbx
	movq	prof+5848(%rip), %rcx
	movq	%rbx, %rsi
	subq	%rcx, %rsi
	movq	%rsi, %rcx
	addq	%rcx, %rdx
	addq	$300, %rax
	movq	%rdx, prof+8(,%rax,8)
	cmpq	$99, -24(%rbp)
	jbe	.L234
	movq	$99, -24(%rbp)
.L234:
	movq	-24(%rbp), %rax
	movq	prof+8(,%rax,8), %rax
	leaq	1(%rax), %rdx
	movq	-24(%rbp), %rax
	movq	%rdx, prof+8(,%rax,8)
	movq	-24(%rbp), %rax
	addq	$200, %rax
	movq	prof+8(,%rax,8), %rax
	movq	prof+5856(%rip), %rcx
	movq	prof+5848(%rip), %rdx
	movq	%rcx, %rbx
	subq	%rdx, %rbx
	movq	%rbx, %rdx
	leaq	(%rax,%rdx), %rdx
	movq	-24(%rbp), %rax
	addq	$200, %rax
	movq	%rdx, prof+8(,%rax,8)
.L232:
	movq	b_strlen(%rip), %rax
	andl	$1, %eax
	testb	%al, %al
	je	.L235
	movq	y(%rip), %rax
	movq	%rax, %rdi
	call	strlen
	movq	%rax, -32(%rbp)
	cmpq	$999, -32(%rbp)
	jbe	.L236
	movq	$999, -32(%rbp)
.L236:
	movq	-32(%rbp), %rsi
	movq	%rsi, -88(%rbp)
	movabsq	$-3689348814741910323, %rdx
	movq	-88(%rbp), %rax
	mulq	%rdx
	movq	%rdx, %rax
	shrq	$3, %rax
	leaq	500(%rax), %rdx
	movq	prof+8(,%rdx,8), %rdx
	addq	$1, %rdx
	addq	$500, %rax
	movq	%rdx, prof+8(,%rax,8)
	cmpq	$99, -32(%rbp)
	jbe	.L237
	movq	$99, -32(%rbp)
.L237:
	movq	-32(%rbp), %rax
	addq	$400, %rax
	movq	prof+8(,%rax,8), %rax
	leaq	1(%rax), %rdx
	movq	-32(%rbp), %rax
	addq	$400, %rax
	movq	%rdx, prof+8(,%rax,8)
.L235:
	movl	$0, -40(%rbp)
	movl	$0, %eax
	call	backtrace2
	movq	%rax, -56(%rbp)
	movl	$0, -36(%rbp)
	jmp	.L238
.L240:
	movl	-36(%rbp), %eax
	cltq
	movq	call_sites(,%rax,8), %rax
	cmpq	-56(%rbp), %rax
	jne	.L239
	movl	$1, -40(%rbp)
.L239:
	addl	$1, -36(%rbp)
.L238:
	movl	-36(%rbp), %eax
	movslq	%eax, %rdx
	movq	prof+5896(%rip), %rax
	cmpq	%rax, %rdx
	jb	.L240
	cmpl	$0, -40(%rbp)
	jne	.L241
	movq	prof+5896(%rip), %rax
	cmpq	$99, %rax
	ja	.L241
	movq	prof+5896(%rip), %rax
	movq	-56(%rbp), %rdx
	movq	%rdx, call_sites(,%rax,8)
	movq	prof+5896(%rip), %rax
	addq	$1, %rax
	movq	%rax, prof+5896(%rip)
.L241:
	movq	-48(%rbp), %rax
	cmpq	-80(%rbp), %rax
	jne	.L242
	movq	prof+5832(%rip), %rax
	subq	$1, %rax
	movq	%rax, prof+5832(%rip)
	movq	prof+5840(%rip), %rax
	addq	$1, %rax
	movq	%rax, prof+5840(%rip)
.L242:
	movq	-48(%rbp), %rax
	addq	$88, %rsp
	popq	%rbx
	leave
	.cfi_def_cfa 7, 8
	ret
	.cfi_endproc
.LFE6:
	.size	strnlen, .-strnlen
.globl strlen
	.type	strlen, @function
strlen:
.LFB7:
	.cfi_startproc
	pushq	%rbp
	.cfi_def_cfa_offset 16
	movq	%rsp, %rbp
	.cfi_offset 6, -16
	.cfi_def_cfa_register 6
	pushq	%rbx
	subq	$88, %rsp
	movq	%rdi, -72(%rbp)
	.cfi_offset 3, -24
	call	rdtsc
	movq	%rax, prof+5848(%rip)
	movq	-72(%rbp), %rax
	movq	%rax, %rdi
	movl	$0, %eax
	call	strlen3
	cltq
	movq	%rax, -48(%rbp)
	movq	prof+5848(%rip), %rdx
	movq	prof+5856(%rip), %rax
	cmpq	%rax, %rdx
	je	.L244
	movq	prof+5848(%rip), %rdx
	movq	prof+5856(%rip), %rax
	subq	%rax, %rdx
	movabsq	$-2147483649, %rax
	cmpq	%rax, %rdx
	ja	.L244
	movq	prof+5848(%rip), %rdx
	movq	prof+5856(%rip), %rax
	movq	%rdx, %rcx
	subq	%rax, %rcx
	movq	%rcx, %rax
	bsrq	%rax, %rax
	xorq	$63, %rax
	movl	$63, %edx
	movl	%edx, %ebx
	subl	%eax, %ebx
	movl	%ebx, %eax
	movslq	%eax, %rdx
	addq	$600, %rdx
	movq	prof+8(,%rdx,8), %rdx
	addq	$1, %rdx
	cltq
	addq	$600, %rax
	movq	%rdx, prof+8(,%rax,8)
.L244:
	call	rdtsc
	movq	%rax, prof+5856(%rip)
	movq	b_strlen(%rip), %rax
	andl	$2, %eax
	testq	%rax, %rax
	je	.L245
	movq	-72(%rbp), %rdx
	movq	y(%rip), %rax
	subq	%rax, %rdx
	movq	%rdx, %rax
	sarq	$63, %rax
	shrq	$58, %rax
	addq	%rax, %rdx
	andl	$63, %edx
	movq	%rdx, %rsi
	subq	%rax, %rsi
	movq	%rsi, %rax
	jmp	.L246
.L245:
	movq	-72(%rbp), %rax
	andl	$63, %eax
.L246:
	leaq	664(%rax), %rdx
	movq	prof+8(,%rdx,8), %rdx
	addq	$1, %rdx
	addq	$664, %rax
	movq	%rdx, prof+8(,%rax,8)
	movq	prof+5832(%rip), %rax
	addq	$1, %rax
	movq	%rax, prof+5832(%rip)
	cmpq	$16, -48(%rbp)
	ja	.L247
	movq	prof(%rip), %rax
	addq	$1, %rax
	movq	%rax, prof(%rip)
.L247:
	movq	b_strlen(%rip), %rax
	andl	$8, %eax
	testq	%rax, %rax
	jne	.L248
	movq	-72(%rbp), %rax
	addq	-48(%rbp), %rax
	movq	%rax, %rdx
	shrq	$4, %rdx
	movq	-72(%rbp), %rax
	shrq	$4, %rax
	movq	%rdx, %rcx
	subq	%rax, %rcx
	movq	%rcx, %rax
	addq	$1, %rax
	jmp	.L249
.L248:
	movq	-48(%rbp), %rax
.L249:
	movq	%rax, -24(%rbp)
	movq	prof+5856(%rip), %rdx
	movq	prof+5848(%rip), %rax
	movq	%rdx, %rbx
	subq	%rax, %rbx
	movq	%rbx, %rax
	cmpq	$1999999, %rax
	ja	.L250
	cmpq	$999, -24(%rbp)
	jbe	.L251
	movq	$999, -24(%rbp)
.L251:
	movq	-24(%rbp), %rsi
	movq	%rsi, -88(%rbp)
	movabsq	$-3689348814741910323, %rdx
	movq	-88(%rbp), %rax
	mulq	%rdx
	movq	%rdx, %rax
	shrq	$3, %rax
	leaq	100(%rax), %rdx
	movq	prof+8(,%rdx,8), %rdx
	addq	$1, %rdx
	addq	$100, %rax
	movq	%rdx, prof+8(,%rax,8)
	movq	-24(%rbp), %rcx
	movq	%rcx, -88(%rbp)
	movabsq	$-3689348814741910323, %rdx
	movq	-88(%rbp), %rax
	mulq	%rdx
	movq	%rdx, %rax
	shrq	$3, %rax
	leaq	300(%rax), %rdx
	movq	prof+8(,%rdx,8), %rdx
	movq	prof+5856(%rip), %rbx
	movq	prof+5848(%rip), %rcx
	movq	%rbx, %rsi
	subq	%rcx, %rsi
	movq	%rsi, %rcx
	addq	%rcx, %rdx
	addq	$300, %rax
	movq	%rdx, prof+8(,%rax,8)
	cmpq	$99, -24(%rbp)
	jbe	.L252
	movq	$99, -24(%rbp)
.L252:
	movq	-24(%rbp), %rax
	movq	prof+8(,%rax,8), %rax
	leaq	1(%rax), %rdx
	movq	-24(%rbp), %rax
	movq	%rdx, prof+8(,%rax,8)
	movq	-24(%rbp), %rax
	addq	$200, %rax
	movq	prof+8(,%rax,8), %rax
	movq	prof+5856(%rip), %rcx
	movq	prof+5848(%rip), %rdx
	movq	%rcx, %rbx
	subq	%rdx, %rbx
	movq	%rbx, %rdx
	leaq	(%rax,%rdx), %rdx
	movq	-24(%rbp), %rax
	addq	$200, %rax
	movq	%rdx, prof+8(,%rax,8)
.L250:
	movq	b_strlen(%rip), %rax
	andl	$1, %eax
	testb	%al, %al
	je	.L253
	movq	y(%rip), %rax
	movq	%rax, %rdi
	call	strlen
	movq	%rax, -32(%rbp)
	cmpq	$999, -32(%rbp)
	jbe	.L254
	movq	$999, -32(%rbp)
.L254:
	movq	-32(%rbp), %rsi
	movq	%rsi, -88(%rbp)
	movabsq	$-3689348814741910323, %rdx
	movq	-88(%rbp), %rax
	mulq	%rdx
	movq	%rdx, %rax
	shrq	$3, %rax
	leaq	500(%rax), %rdx
	movq	prof+8(,%rdx,8), %rdx
	addq	$1, %rdx
	addq	$500, %rax
	movq	%rdx, prof+8(,%rax,8)
	cmpq	$99, -32(%rbp)
	jbe	.L255
	movq	$99, -32(%rbp)
.L255:
	movq	-32(%rbp), %rax
	addq	$400, %rax
	movq	prof+8(,%rax,8), %rax
	leaq	1(%rax), %rdx
	movq	-32(%rbp), %rax
	addq	$400, %rax
	movq	%rdx, prof+8(,%rax,8)
.L253:
	movl	$0, -40(%rbp)
	movl	$0, %eax
	call	backtrace2
	movq	%rax, -56(%rbp)
	movl	$0, -36(%rbp)
	jmp	.L256
.L258:
	movl	-36(%rbp), %eax
	cltq
	movq	call_sites(,%rax,8), %rax
	cmpq	-56(%rbp), %rax
	jne	.L257
	movl	$1, -40(%rbp)
.L257:
	addl	$1, -36(%rbp)
.L256:
	movl	-36(%rbp), %eax
	movslq	%eax, %rdx
	movq	prof+5896(%rip), %rax
	cmpq	%rax, %rdx
	jb	.L258
	cmpl	$0, -40(%rbp)
	jne	.L259
	movq	prof+5896(%rip), %rax
	cmpq	$99, %rax
	ja	.L259
	movq	prof+5896(%rip), %rax
	movq	-56(%rbp), %rdx
	movq	%rdx, call_sites(,%rax,8)
	movq	prof+5896(%rip), %rax
	addq	$1, %rax
	movq	%rax, prof+5896(%rip)
.L259:
	movq	-48(%rbp), %rax
	addq	$88, %rsp
	popq	%rbx
	leave
	.cfi_def_cfa 7, 8
	ret
	.cfi_endproc
.LFE7:
	.size	strlen, .-strlen
.globl strrchr
	.type	strrchr, @function
strrchr:
.LFB8:
	.cfi_startproc
	pushq	%rbp
	.cfi_def_cfa_offset 16
	movq	%rsp, %rbp
	.cfi_offset 6, -16
	.cfi_def_cfa_register 6
	pushq	%rbx
	subq	$104, %rsp
	movq	%rdi, -88(%rbp)
	movl	%esi, -92(%rbp)
	.cfi_offset 3, -24
	call	rdtsc
	movq	%rax, prof+70792(%rip)
	movq	-88(%rbp), %rax
	movq	%rax, -24(%rbp)
	movq	$0, -32(%rbp)
	jmp	.L261
.L263:
	movq	-24(%rbp), %rax
	movzbl	(%rax), %edx
	movl	-92(%rbp), %eax
	cmpb	%al, %dl
	jne	.L262
	movq	-24(%rbp), %rax
	movq	%rax, -32(%rbp)
.L262:
	addq	$1, -24(%rbp)
.L261:
	movq	-24(%rbp), %rax
	movzbl	(%rax), %eax
	testb	%al, %al
	jne	.L263
	movq	-24(%rbp), %rdx
	movq	-88(%rbp), %rax
	movq	%rdx, %rcx
	subq	%rax, %rcx
	movq	%rcx, %rax
	movq	%rax, -64(%rbp)
	movq	prof+70792(%rip), %rdx
	movq	prof+70800(%rip), %rax
	cmpq	%rax, %rdx
	je	.L264
	movq	prof+70792(%rip), %rdx
	movq	prof+70800(%rip), %rax
	subq	%rax, %rdx
	movabsq	$-2147483649, %rax
	cmpq	%rax, %rdx
	ja	.L264
	movq	prof+70792(%rip), %rdx
	movq	prof+70800(%rip), %rax
	movq	%rdx, %rbx
	subq	%rax, %rbx
	movq	%rbx, %rax
	bsrq	%rax, %rax
	xorq	$63, %rax
	movl	$63, %edx
	movl	%edx, %esi
	subl	%eax, %esi
	movl	%esi, %eax
	movslq	%eax, %rdx
	addq	$8718, %rdx
	movq	prof+8(,%rdx,8), %rdx
	addq	$1, %rdx
	cltq
	addq	$8718, %rax
	movq	%rdx, prof+8(,%rax,8)
.L264:
	call	rdtsc
	movq	%rax, prof+70800(%rip)
	movq	b_strrchr(%rip), %rax
	andl	$2, %eax
	testq	%rax, %rax
	je	.L265
	movq	-88(%rbp), %rdx
	movq	-24(%rbp), %rax
	subq	%rax, %rdx
	movq	%rdx, %rax
	sarq	$63, %rax
	shrq	$58, %rax
	addq	%rax, %rdx
	andl	$63, %edx
	movq	%rdx, %rcx
	subq	%rax, %rcx
	movq	%rcx, %rax
	jmp	.L266
.L265:
	movq	-88(%rbp), %rax
	andl	$63, %eax
.L266:
	leaq	8782(%rax), %rdx
	movq	prof+8(,%rdx,8), %rdx
	addq	$1, %rdx
	addq	$8782, %rax
	movq	%rdx, prof+8(,%rax,8)
	movq	prof+70776(%rip), %rax
	addq	$1, %rax
	movq	%rax, prof+70776(%rip)
	cmpq	$16, -64(%rbp)
	ja	.L267
	movq	prof+64944(%rip), %rax
	addq	$1, %rax
	movq	%rax, prof+64944(%rip)
.L267:
	movq	b_strrchr(%rip), %rax
	andl	$8, %eax
	testq	%rax, %rax
	jne	.L268
	movq	-88(%rbp), %rax
	addq	-64(%rbp), %rax
	movq	%rax, %rdx
	shrq	$4, %rdx
	movq	-88(%rbp), %rax
	shrq	$4, %rax
	movq	%rdx, %rbx
	subq	%rax, %rbx
	movq	%rbx, %rax
	addq	$1, %rax
	jmp	.L269
.L268:
	movq	-64(%rbp), %rax
.L269:
	movq	%rax, -40(%rbp)
	movq	prof+70800(%rip), %rdx
	movq	prof+70792(%rip), %rax
	movq	%rdx, %rsi
	subq	%rax, %rsi
	movq	%rsi, %rax
	cmpq	$1999999, %rax
	ja	.L270
	cmpq	$999, -40(%rbp)
	jbe	.L271
	movq	$999, -40(%rbp)
.L271:
	movq	-40(%rbp), %rax
	movq	%rax, -104(%rbp)
	movabsq	$-3689348814741910323, %rdx
	movq	-104(%rbp), %rax
	mulq	%rdx
	movq	%rdx, %rax
	shrq	$3, %rax
	leaq	8218(%rax), %rdx
	movq	prof+8(,%rdx,8), %rdx
	addq	$1, %rdx
	addq	$8218, %rax
	movq	%rdx, prof+8(,%rax,8)
	movq	-40(%rbp), %rcx
	movq	%rcx, -104(%rbp)
	movabsq	$-3689348814741910323, %rdx
	movq	-104(%rbp), %rax
	mulq	%rdx
	movq	%rdx, %rax
	shrq	$3, %rax
	leaq	8418(%rax), %rdx
	movq	prof+8(,%rdx,8), %rdx
	movq	prof+70800(%rip), %rbx
	movq	prof+70792(%rip), %rcx
	movq	%rbx, %rsi
	subq	%rcx, %rsi
	movq	%rsi, %rcx
	addq	%rcx, %rdx
	addq	$8418, %rax
	movq	%rdx, prof+8(,%rax,8)
	cmpq	$99, -40(%rbp)
	jbe	.L272
	movq	$99, -40(%rbp)
.L272:
	movq	-40(%rbp), %rax
	addq	$8118, %rax
	movq	prof+8(,%rax,8), %rax
	leaq	1(%rax), %rdx
	movq	-40(%rbp), %rax
	addq	$8118, %rax
	movq	%rdx, prof+8(,%rax,8)
	movq	-40(%rbp), %rax
	addq	$8318, %rax
	movq	prof+8(,%rax,8), %rax
	movq	prof+70800(%rip), %rcx
	movq	prof+70792(%rip), %rdx
	movq	%rcx, %rbx
	subq	%rdx, %rbx
	movq	%rbx, %rdx
	leaq	(%rax,%rdx), %rdx
	movq	-40(%rbp), %rax
	addq	$8318, %rax
	movq	%rdx, prof+8(,%rax,8)
.L270:
	movq	b_strrchr(%rip), %rax
	andl	$1, %eax
	testb	%al, %al
	je	.L273
	movq	-24(%rbp), %rax
	movq	%rax, %rdi
	call	strlen
	movq	%rax, -48(%rbp)
	cmpq	$999, -48(%rbp)
	jbe	.L274
	movq	$999, -48(%rbp)
.L274:
	movq	-48(%rbp), %rsi
	movq	%rsi, -104(%rbp)
	movabsq	$-3689348814741910323, %rdx
	movq	-104(%rbp), %rax
	mulq	%rdx
	movq	%rdx, %rax
	shrq	$3, %rax
	leaq	8618(%rax), %rdx
	movq	prof+8(,%rdx,8), %rdx
	addq	$1, %rdx
	addq	$8618, %rax
	movq	%rdx, prof+8(,%rax,8)
	cmpq	$99, -48(%rbp)
	jbe	.L275
	movq	$99, -48(%rbp)
.L275:
	movq	-48(%rbp), %rax
	addq	$8518, %rax
	movq	prof+8(,%rax,8), %rax
	leaq	1(%rax), %rdx
	movq	-48(%rbp), %rax
	addq	$8518, %rax
	movq	%rdx, prof+8(,%rax,8)
.L273:
	movl	$0, -56(%rbp)
	movl	$0, %eax
	call	backtrace2
	movq	%rax, -72(%rbp)
	movl	$0, -52(%rbp)
	jmp	.L276
.L278:
	movl	-52(%rbp), %eax
	cltq
	addq	$1100, %rax
	movq	call_sites(,%rax,8), %rax
	cmpq	-72(%rbp), %rax
	jne	.L277
	movl	$1, -56(%rbp)
.L277:
	addl	$1, -52(%rbp)
.L276:
	movl	-52(%rbp), %eax
	movslq	%eax, %rdx
	movq	prof+70840(%rip), %rax
	cmpq	%rax, %rdx
	jb	.L278
	cmpl	$0, -56(%rbp)
	jne	.L279
	movq	prof+70840(%rip), %rax
	cmpq	$99, %rax
	ja	.L279
	movq	prof+70840(%rip), %rax
	leaq	1100(%rax), %rdx
	movq	-72(%rbp), %rax
	movq	%rax, call_sites(,%rdx,8)
	movq	prof+70840(%rip), %rax
	addq	$1, %rax
	movq	%rax, prof+70840(%rip)
.L279:
	movq	-32(%rbp), %rax
	movq	%rax, -24(%rbp)
	cmpq	$0, -24(%rbp)
	je	.L280
	movq	-24(%rbp), %rax
	jmp	.L281
.L280:
	movq	prof+70776(%rip), %rax
	subq	$1, %rax
	movq	%rax, prof+70776(%rip)
	movq	prof+70784(%rip), %rax
	addq	$1, %rax
	movq	%rax, prof+70784(%rip)
	movq	-24(%rbp), %rax
.L281:
	addq	$104, %rsp
	popq	%rbx
	leave
	.cfi_def_cfa 7, 8
	ret
	.cfi_endproc
.LFE8:
	.size	strrchr, .-strrchr
.globl memrchr
	.type	memrchr, @function
memrchr:
.LFB9:
	.cfi_startproc
	pushq	%rbp
	.cfi_def_cfa_offset 16
	movq	%rsp, %rbp
	.cfi_offset 6, -16
	.cfi_def_cfa_register 6
	pushq	%rbx
	subq	$104, %rsp
	movq	%rdi, -88(%rbp)
	movl	%esi, -92(%rbp)
	movl	%edx, -96(%rbp)
	.cfi_offset 3, -24
	call	rdtsc
	movq	%rax, prof+70792(%rip)
	movq	-88(%rbp), %rax
	movq	%rax, -24(%rbp)
	movq	$0, -32(%rbp)
	jmp	.L283
.L285:
	movq	-24(%rbp), %rax
	movzbl	(%rax), %edx
	movl	-92(%rbp), %eax
	cmpb	%al, %dl
	jne	.L284
	movq	-24(%rbp), %rax
	movq	%rax, -32(%rbp)
.L284:
	addq	$1, -24(%rbp)
.L283:
	movq	-24(%rbp), %rdx
	movq	-88(%rbp), %rax
	subq	%rax, %rdx
	movl	-96(%rbp), %eax
	cltq
	cmpq	%rax, %rdx
	jne	.L285
	movq	-24(%rbp), %rdx
	movq	-88(%rbp), %rax
	movq	%rdx, %rcx
	subq	%rax, %rcx
	movq	%rcx, %rax
	movq	%rax, -64(%rbp)
	movq	prof+70792(%rip), %rdx
	movq	prof+70800(%rip), %rax
	cmpq	%rax, %rdx
	je	.L286
	movq	prof+70792(%rip), %rdx
	movq	prof+70800(%rip), %rax
	subq	%rax, %rdx
	movabsq	$-2147483649, %rax
	cmpq	%rax, %rdx
	ja	.L286
	movq	prof+70792(%rip), %rdx
	movq	prof+70800(%rip), %rax
	movq	%rdx, %rbx
	subq	%rax, %rbx
	movq	%rbx, %rax
	bsrq	%rax, %rax
	xorq	$63, %rax
	movl	$63, %edx
	movl	%edx, %esi
	subl	%eax, %esi
	movl	%esi, %eax
	movslq	%eax, %rdx
	addq	$8718, %rdx
	movq	prof+8(,%rdx,8), %rdx
	addq	$1, %rdx
	cltq
	addq	$8718, %rax
	movq	%rdx, prof+8(,%rax,8)
.L286:
	call	rdtsc
	movq	%rax, prof+70800(%rip)
	movq	b_strrchr(%rip), %rax
	andl	$2, %eax
	testq	%rax, %rax
	je	.L287
	movq	-88(%rbp), %rdx
	movq	-24(%rbp), %rax
	subq	%rax, %rdx
	movq	%rdx, %rax
	sarq	$63, %rax
	shrq	$58, %rax
	addq	%rax, %rdx
	andl	$63, %edx
	movq	%rdx, %rcx
	subq	%rax, %rcx
	movq	%rcx, %rax
	jmp	.L288
.L287:
	movq	-88(%rbp), %rax
	andl	$63, %eax
.L288:
	leaq	8782(%rax), %rdx
	movq	prof+8(,%rdx,8), %rdx
	addq	$1, %rdx
	addq	$8782, %rax
	movq	%rdx, prof+8(,%rax,8)
	movq	prof+70776(%rip), %rax
	addq	$1, %rax
	movq	%rax, prof+70776(%rip)
	cmpq	$16, -64(%rbp)
	ja	.L289
	movq	prof+64944(%rip), %rax
	addq	$1, %rax
	movq	%rax, prof+64944(%rip)
.L289:
	movq	b_strrchr(%rip), %rax
	andl	$8, %eax
	testq	%rax, %rax
	jne	.L290
	movq	-88(%rbp), %rax
	addq	-64(%rbp), %rax
	movq	%rax, %rdx
	shrq	$4, %rdx
	movq	-88(%rbp), %rax
	shrq	$4, %rax
	movq	%rdx, %rbx
	subq	%rax, %rbx
	movq	%rbx, %rax
	addq	$1, %rax
	jmp	.L291
.L290:
	movq	-64(%rbp), %rax
.L291:
	movq	%rax, -40(%rbp)
	movq	prof+70800(%rip), %rdx
	movq	prof+70792(%rip), %rax
	movq	%rdx, %rsi
	subq	%rax, %rsi
	movq	%rsi, %rax
	cmpq	$1999999, %rax
	ja	.L292
	cmpq	$999, -40(%rbp)
	jbe	.L293
	movq	$999, -40(%rbp)
.L293:
	movq	-40(%rbp), %rax
	movq	%rax, -104(%rbp)
	movabsq	$-3689348814741910323, %rdx
	movq	-104(%rbp), %rax
	mulq	%rdx
	movq	%rdx, %rax
	shrq	$3, %rax
	leaq	8218(%rax), %rdx
	movq	prof+8(,%rdx,8), %rdx
	addq	$1, %rdx
	addq	$8218, %rax
	movq	%rdx, prof+8(,%rax,8)
	movq	-40(%rbp), %rcx
	movq	%rcx, -104(%rbp)
	movabsq	$-3689348814741910323, %rdx
	movq	-104(%rbp), %rax
	mulq	%rdx
	movq	%rdx, %rax
	shrq	$3, %rax
	leaq	8418(%rax), %rdx
	movq	prof+8(,%rdx,8), %rdx
	movq	prof+70800(%rip), %rbx
	movq	prof+70792(%rip), %rcx
	movq	%rbx, %rsi
	subq	%rcx, %rsi
	movq	%rsi, %rcx
	addq	%rcx, %rdx
	addq	$8418, %rax
	movq	%rdx, prof+8(,%rax,8)
	cmpq	$99, -40(%rbp)
	jbe	.L294
	movq	$99, -40(%rbp)
.L294:
	movq	-40(%rbp), %rax
	addq	$8118, %rax
	movq	prof+8(,%rax,8), %rax
	leaq	1(%rax), %rdx
	movq	-40(%rbp), %rax
	addq	$8118, %rax
	movq	%rdx, prof+8(,%rax,8)
	movq	-40(%rbp), %rax
	addq	$8318, %rax
	movq	prof+8(,%rax,8), %rax
	movq	prof+70800(%rip), %rcx
	movq	prof+70792(%rip), %rdx
	movq	%rcx, %rbx
	subq	%rdx, %rbx
	movq	%rbx, %rdx
	leaq	(%rax,%rdx), %rdx
	movq	-40(%rbp), %rax
	addq	$8318, %rax
	movq	%rdx, prof+8(,%rax,8)
.L292:
	movq	b_strrchr(%rip), %rax
	andl	$1, %eax
	testb	%al, %al
	je	.L295
	movq	-24(%rbp), %rax
	movq	%rax, %rdi
	call	strlen
	movq	%rax, -48(%rbp)
	cmpq	$999, -48(%rbp)
	jbe	.L296
	movq	$999, -48(%rbp)
.L296:
	movq	-48(%rbp), %rsi
	movq	%rsi, -104(%rbp)
	movabsq	$-3689348814741910323, %rdx
	movq	-104(%rbp), %rax
	mulq	%rdx
	movq	%rdx, %rax
	shrq	$3, %rax
	leaq	8618(%rax), %rdx
	movq	prof+8(,%rdx,8), %rdx
	addq	$1, %rdx
	addq	$8618, %rax
	movq	%rdx, prof+8(,%rax,8)
	cmpq	$99, -48(%rbp)
	jbe	.L297
	movq	$99, -48(%rbp)
.L297:
	movq	-48(%rbp), %rax
	addq	$8518, %rax
	movq	prof+8(,%rax,8), %rax
	leaq	1(%rax), %rdx
	movq	-48(%rbp), %rax
	addq	$8518, %rax
	movq	%rdx, prof+8(,%rax,8)
.L295:
	movl	$0, -56(%rbp)
	movl	$0, %eax
	call	backtrace2
	movq	%rax, -72(%rbp)
	movl	$0, -52(%rbp)
	jmp	.L298
.L300:
	movl	-52(%rbp), %eax
	cltq
	addq	$1100, %rax
	movq	call_sites(,%rax,8), %rax
	cmpq	-72(%rbp), %rax
	jne	.L299
	movl	$1, -56(%rbp)
.L299:
	addl	$1, -52(%rbp)
.L298:
	movl	-52(%rbp), %eax
	movslq	%eax, %rdx
	movq	prof+70840(%rip), %rax
	cmpq	%rax, %rdx
	jb	.L300
	cmpl	$0, -56(%rbp)
	jne	.L301
	movq	prof+70840(%rip), %rax
	cmpq	$99, %rax
	ja	.L301
	movq	prof+70840(%rip), %rax
	leaq	1100(%rax), %rdx
	movq	-72(%rbp), %rax
	movq	%rax, call_sites(,%rdx,8)
	movq	prof+70840(%rip), %rax
	addq	$1, %rax
	movq	%rax, prof+70840(%rip)
.L301:
	movq	-32(%rbp), %rax
	movq	%rax, -24(%rbp)
	cmpq	$0, -24(%rbp)
	je	.L302
	movq	-24(%rbp), %rax
	jmp	.L303
.L302:
	movq	prof+11736(%rip), %rax
	subq	$1, %rax
	movq	%rax, prof+11736(%rip)
	movq	prof+11744(%rip), %rax
	addq	$1, %rax
	movq	%rax, prof+11744(%rip)
	movq	-24(%rbp), %rax
.L303:
	addq	$104, %rsp
	popq	%rbx
	leave
	.cfi_def_cfa 7, 8
	ret
	.cfi_endproc
.LFE9:
	.size	memrchr, .-memrchr
.globl strchr2
	.type	strchr2, @function
strchr2:
.LFB10:
	.cfi_startproc
	pushq	%rbp
	.cfi_def_cfa_offset 16
	movq	%rsp, %rbp
	.cfi_offset 6, -16
	.cfi_def_cfa_register 6
	pushq	%rbx
	subq	$88, %rsp
	movq	%rdi, -72(%rbp)
	movl	%esi, -76(%rbp)
	movl	%edx, -80(%rbp)
	.cfi_offset 3, -24
	call	rdtsc
	movq	%rax, prof+11752(%rip)
	movq	-72(%rbp), %rax
	movq	%rax, -24(%rbp)
	jmp	.L305
.L307:
	addq	$1, -24(%rbp)
.L305:
	movq	-24(%rbp), %rax
	movzbl	(%rax), %eax
	testb	%al, %al
	je	.L306
	movq	-24(%rbp), %rax
	movzbl	(%rax), %edx
	movl	-76(%rbp), %eax
	cmpb	%al, %dl
	jne	.L307
.L306:
	movq	-24(%rbp), %rdx
	movq	-72(%rbp), %rax
	movq	%rdx, %rcx
	subq	%rax, %rcx
	movq	%rcx, %rax
	movq	%rax, -56(%rbp)
	movq	prof+11752(%rip), %rdx
	movq	prof+11760(%rip), %rax
	cmpq	%rax, %rdx
	je	.L308
	movq	prof+11752(%rip), %rdx
	movq	prof+11760(%rip), %rax
	subq	%rax, %rdx
	movabsq	$-2147483649, %rax
	cmpq	%rax, %rdx
	ja	.L308
	movq	prof+11752(%rip), %rdx
	movq	prof+11760(%rip), %rax
	movq	%rdx, %rbx
	subq	%rax, %rbx
	movq	%rbx, %rax
	bsrq	%rax, %rax
	xorq	$63, %rax
	movl	$63, %edx
	movl	%edx, %esi
	subl	%eax, %esi
	movl	%esi, %eax
	movslq	%eax, %rdx
	addq	$1338, %rdx
	movq	prof+8(,%rdx,8), %rdx
	addq	$1, %rdx
	cltq
	addq	$1338, %rax
	movq	%rdx, prof+8(,%rax,8)
.L308:
	call	rdtsc
	movq	%rax, prof+11760(%rip)
	movq	b_strchr(%rip), %rax
	andl	$2, %eax
	testq	%rax, %rax
	je	.L309
	movq	-72(%rbp), %rdx
	movq	-24(%rbp), %rax
	subq	%rax, %rdx
	movq	%rdx, %rax
	sarq	$63, %rax
	shrq	$58, %rax
	addq	%rax, %rdx
	andl	$63, %edx
	movq	%rdx, %rcx
	subq	%rax, %rcx
	movq	%rcx, %rax
	jmp	.L310
.L309:
	movq	-72(%rbp), %rax
	andl	$63, %eax
.L310:
	leaq	1402(%rax), %rdx
	movq	prof+8(,%rdx,8), %rdx
	addq	$1, %rdx
	addq	$1402, %rax
	movq	%rdx, prof+8(,%rax,8)
	movq	prof+11736(%rip), %rax
	addq	$1, %rax
	movq	%rax, prof+11736(%rip)
	cmpq	$16, -56(%rbp)
	ja	.L311
	movq	prof+5904(%rip), %rax
	addq	$1, %rax
	movq	%rax, prof+5904(%rip)
.L311:
	movq	b_strchr(%rip), %rax
	andl	$8, %eax
	testq	%rax, %rax
	jne	.L312
	movq	-72(%rbp), %rax
	addq	-56(%rbp), %rax
	movq	%rax, %rdx
	shrq	$4, %rdx
	movq	-72(%rbp), %rax
	shrq	$4, %rax
	movq	%rdx, %rbx
	subq	%rax, %rbx
	movq	%rbx, %rax
	addq	$1, %rax
	jmp	.L313
.L312:
	movq	-56(%rbp), %rax
.L313:
	movq	%rax, -32(%rbp)
	movq	prof+11760(%rip), %rdx
	movq	prof+11752(%rip), %rax
	movq	%rdx, %rsi
	subq	%rax, %rsi
	movq	%rsi, %rax
	cmpq	$1999999, %rax
	ja	.L314
	cmpq	$999, -32(%rbp)
	jbe	.L315
	movq	$999, -32(%rbp)
.L315:
	movq	-32(%rbp), %rax
	movq	%rax, -88(%rbp)
	movabsq	$-3689348814741910323, %rdx
	movq	-88(%rbp), %rax
	mulq	%rdx
	movq	%rdx, %rax
	shrq	$3, %rax
	leaq	838(%rax), %rdx
	movq	prof+8(,%rdx,8), %rdx
	addq	$1, %rdx
	addq	$838, %rax
	movq	%rdx, prof+8(,%rax,8)
	movq	-32(%rbp), %rcx
	movq	%rcx, -88(%rbp)
	movabsq	$-3689348814741910323, %rdx
	movq	-88(%rbp), %rax
	mulq	%rdx
	movq	%rdx, %rax
	shrq	$3, %rax
	leaq	1038(%rax), %rdx
	movq	prof+8(,%rdx,8), %rdx
	movq	prof+11760(%rip), %rbx
	movq	prof+11752(%rip), %rcx
	movq	%rbx, %rsi
	subq	%rcx, %rsi
	movq	%rsi, %rcx
	addq	%rcx, %rdx
	addq	$1038, %rax
	movq	%rdx, prof+8(,%rax,8)
	cmpq	$99, -32(%rbp)
	jbe	.L316
	movq	$99, -32(%rbp)
.L316:
	movq	-32(%rbp), %rax
	addq	$738, %rax
	movq	prof+8(,%rax,8), %rax
	leaq	1(%rax), %rdx
	movq	-32(%rbp), %rax
	addq	$738, %rax
	movq	%rdx, prof+8(,%rax,8)
	movq	-32(%rbp), %rax
	addq	$938, %rax
	movq	prof+8(,%rax,8), %rax
	movq	prof+11760(%rip), %rcx
	movq	prof+11752(%rip), %rdx
	movq	%rcx, %rbx
	subq	%rdx, %rbx
	movq	%rbx, %rdx
	leaq	(%rax,%rdx), %rdx
	movq	-32(%rbp), %rax
	addq	$938, %rax
	movq	%rdx, prof+8(,%rax,8)
.L314:
	movq	b_strchr(%rip), %rax
	andl	$1, %eax
	testb	%al, %al
	je	.L317
	movq	-24(%rbp), %rax
	movq	%rax, %rdi
	call	strlen
	movq	%rax, -40(%rbp)
	cmpq	$999, -40(%rbp)
	jbe	.L318
	movq	$999, -40(%rbp)
.L318:
	movq	-40(%rbp), %rsi
	movq	%rsi, -88(%rbp)
	movabsq	$-3689348814741910323, %rdx
	movq	-88(%rbp), %rax
	mulq	%rdx
	movq	%rdx, %rax
	shrq	$3, %rax
	leaq	1238(%rax), %rdx
	movq	prof+8(,%rdx,8), %rdx
	addq	$1, %rdx
	addq	$1238, %rax
	movq	%rdx, prof+8(,%rax,8)
	cmpq	$99, -40(%rbp)
	jbe	.L319
	movq	$99, -40(%rbp)
.L319:
	movq	-40(%rbp), %rax
	addq	$1138, %rax
	movq	prof+8(,%rax,8), %rax
	leaq	1(%rax), %rdx
	movq	-40(%rbp), %rax
	addq	$1138, %rax
	movq	%rdx, prof+8(,%rax,8)
.L317:
	movl	$0, -48(%rbp)
	movl	$0, %eax
	call	backtrace2
	movq	%rax, -64(%rbp)
	movl	$0, -44(%rbp)
	jmp	.L320
.L322:
	movl	-44(%rbp), %eax
	cltq
	addq	$100, %rax
	movq	call_sites(,%rax,8), %rax
	cmpq	-64(%rbp), %rax
	jne	.L321
	movl	$1, -48(%rbp)
.L321:
	addl	$1, -44(%rbp)
.L320:
	movl	-44(%rbp), %eax
	movslq	%eax, %rdx
	movq	prof+11800(%rip), %rax
	cmpq	%rax, %rdx
	jb	.L322
	cmpl	$0, -48(%rbp)
	jne	.L323
	movq	prof+11800(%rip), %rax
	cmpq	$99, %rax
	ja	.L323
	movq	prof+11800(%rip), %rax
	leaq	100(%rax), %rdx
	movq	-64(%rbp), %rax
	movq	%rax, call_sites(,%rdx,8)
	movq	prof+11800(%rip), %rax
	addq	$1, %rax
	movq	%rax, prof+11800(%rip)
.L323:
	movq	-24(%rbp), %rax
	movzbl	(%rax), %edx
	movl	-76(%rbp), %eax
	cmpb	%al, %dl
	jne	.L324
	movq	-24(%rbp), %rax
	jmp	.L325
.L324:
	movq	prof+11736(%rip), %rax
	subq	$1, %rax
	movq	%rax, prof+11736(%rip)
	movq	prof+11744(%rip), %rax
	addq	$1, %rax
	movq	%rax, prof+11744(%rip)
	cmpl	$0, -80(%rbp)
	je	.L326
	movq	-24(%rbp), %rax
	jmp	.L327
.L326:
	movl	$0, %eax
.L327:
.L325:
	addq	$88, %rsp
	popq	%rbx
	leave
	.cfi_def_cfa 7, 8
	ret
	.cfi_endproc
.LFE10:
	.size	strchr2, .-strchr2
.globl strchr
	.type	strchr, @function
strchr:
.LFB11:
	.cfi_startproc
	pushq	%rbp
	.cfi_def_cfa_offset 16
	movq	%rsp, %rbp
	.cfi_offset 6, -16
	.cfi_def_cfa_register 6
	subq	$16, %rsp
	movq	%rdi, -8(%rbp)
	movl	%esi, -12(%rbp)
	movl	-12(%rbp), %ecx
	movq	-8(%rbp), %rax
	movl	$0, %edx
	movl	%ecx, %esi
	movq	%rax, %rdi
	call	strchr2
	leave
	.cfi_def_cfa 7, 8
	ret
	.cfi_endproc
.LFE11:
	.size	strchr, .-strchr
.globl strchrnul
	.type	strchrnul, @function
strchrnul:
.LFB12:
	.cfi_startproc
	pushq	%rbp
	.cfi_def_cfa_offset 16
	movq	%rsp, %rbp
	.cfi_offset 6, -16
	.cfi_def_cfa_register 6
	subq	$16, %rsp
	movq	%rdi, -8(%rbp)
	movl	%esi, -12(%rbp)
	movl	-12(%rbp), %ecx
	movq	-8(%rbp), %rax
	movl	$1, %edx
	movl	%ecx, %esi
	movq	%rax, %rdi
	call	strchr2
	leave
	.cfi_def_cfa 7, 8
	ret
	.cfi_endproc
.LFE12:
	.size	strchrnul, .-strchrnul
.globl memchr
	.type	memchr, @function
memchr:
.LFB13:
	.cfi_startproc
	pushq	%rbp
	.cfi_def_cfa_offset 16
	movq	%rsp, %rbp
	.cfi_offset 6, -16
	.cfi_def_cfa_register 6
	pushq	%rbx
	subq	$104, %rsp
	movq	%rdi, -72(%rbp)
	movl	%esi, -76(%rbp)
	movq	%rdx, -88(%rbp)
	.cfi_offset 3, -24
	call	rdtsc
	movq	%rax, prof+29464(%rip)
	movq	-72(%rbp), %rax
	movq	%rax, -24(%rbp)
	jmp	.L331
.L333:
	addq	$1, -24(%rbp)
.L331:
	movq	-24(%rbp), %rdx
	movq	-72(%rbp), %rax
	movq	%rdx, %rcx
	subq	%rax, %rcx
	movq	%rcx, %rax
	cmpq	-88(%rbp), %rax
	je	.L332
	movq	-24(%rbp), %rax
	movzbl	(%rax), %edx
	movl	-76(%rbp), %eax
	cmpb	%al, %dl
	jne	.L333
.L332:
	movq	-24(%rbp), %rdx
	movq	-72(%rbp), %rax
	movq	%rdx, %rbx
	subq	%rax, %rbx
	movq	%rbx, %rax
	movq	%rax, -56(%rbp)
	movq	prof+29464(%rip), %rdx
	movq	prof+29472(%rip), %rax
	cmpq	%rax, %rdx
	je	.L334
	movq	prof+29464(%rip), %rdx
	movq	prof+29472(%rip), %rax
	subq	%rax, %rdx
	movabsq	$-2147483649, %rax
	cmpq	%rax, %rdx
	ja	.L334
	movq	prof+29464(%rip), %rdx
	movq	prof+29472(%rip), %rax
	movq	%rdx, %rsi
	subq	%rax, %rsi
	movq	%rsi, %rax
	bsrq	%rax, %rax
	xorq	$63, %rax
	movl	$63, %edx
	movl	%edx, %ecx
	subl	%eax, %ecx
	movl	%ecx, %eax
	movslq	%eax, %rdx
	addq	$3552, %rdx
	movq	prof+8(,%rdx,8), %rdx
	addq	$1, %rdx
	cltq
	addq	$3552, %rax
	movq	%rdx, prof+8(,%rax,8)
.L334:
	call	rdtsc
	movq	%rax, prof+29472(%rip)
	movq	b_memchr(%rip), %rax
	andl	$2, %eax
	testq	%rax, %rax
	je	.L335
	movq	-72(%rbp), %rdx
	movq	-24(%rbp), %rax
	subq	%rax, %rdx
	movq	%rdx, %rax
	sarq	$63, %rax
	shrq	$58, %rax
	addq	%rax, %rdx
	andl	$63, %edx
	movq	%rdx, %rbx
	subq	%rax, %rbx
	movq	%rbx, %rax
	jmp	.L336
.L335:
	movq	-72(%rbp), %rax
	andl	$63, %eax
.L336:
	leaq	3616(%rax), %rdx
	movq	prof+8(,%rdx,8), %rdx
	addq	$1, %rdx
	addq	$3616, %rax
	movq	%rdx, prof+8(,%rax,8)
	movq	prof+29448(%rip), %rax
	addq	$1, %rax
	movq	%rax, prof+29448(%rip)
	cmpq	$16, -56(%rbp)
	ja	.L337
	movq	prof+23616(%rip), %rax
	addq	$1, %rax
	movq	%rax, prof+23616(%rip)
.L337:
	movq	b_memchr(%rip), %rax
	andl	$8, %eax
	testq	%rax, %rax
	jne	.L338
	movq	-72(%rbp), %rax
	addq	-56(%rbp), %rax
	movq	%rax, %rdx
	shrq	$4, %rdx
	movq	-72(%rbp), %rax
	shrq	$4, %rax
	movq	%rdx, %rsi
	subq	%rax, %rsi
	movq	%rsi, %rax
	addq	$1, %rax
	jmp	.L339
.L338:
	movq	-56(%rbp), %rax
.L339:
	movq	%rax, -32(%rbp)
	movq	prof+29472(%rip), %rdx
	movq	prof+29464(%rip), %rax
	movq	%rdx, %rcx
	subq	%rax, %rcx
	movq	%rcx, %rax
	cmpq	$1999999, %rax
	ja	.L340
	cmpq	$999, -32(%rbp)
	jbe	.L341
	movq	$999, -32(%rbp)
.L341:
	movq	-32(%rbp), %rbx
	movq	%rbx, -104(%rbp)
	movabsq	$-3689348814741910323, %rdx
	movq	-104(%rbp), %rax
	mulq	%rdx
	movq	%rdx, %rax
	shrq	$3, %rax
	leaq	3052(%rax), %rdx
	movq	prof+8(,%rdx,8), %rdx
	addq	$1, %rdx
	addq	$3052, %rax
	movq	%rdx, prof+8(,%rax,8)
	movq	-32(%rbp), %rcx
	movq	%rcx, -104(%rbp)
	movabsq	$-3689348814741910323, %rdx
	movq	-104(%rbp), %rax
	mulq	%rdx
	movq	%rdx, %rax
	shrq	$3, %rax
	leaq	3252(%rax), %rdx
	movq	prof+8(,%rdx,8), %rdx
	movq	prof+29472(%rip), %rbx
	movq	prof+29464(%rip), %rcx
	movq	%rbx, %rsi
	subq	%rcx, %rsi
	movq	%rsi, %rcx
	addq	%rcx, %rdx
	addq	$3252, %rax
	movq	%rdx, prof+8(,%rax,8)
	cmpq	$99, -32(%rbp)
	jbe	.L342
	movq	$99, -32(%rbp)
.L342:
	movq	-32(%rbp), %rax
	addq	$2952, %rax
	movq	prof+8(,%rax,8), %rax
	leaq	1(%rax), %rdx
	movq	-32(%rbp), %rax
	addq	$2952, %rax
	movq	%rdx, prof+8(,%rax,8)
	movq	-32(%rbp), %rax
	addq	$3152, %rax
	movq	prof+8(,%rax,8), %rax
	movq	prof+29472(%rip), %rcx
	movq	prof+29464(%rip), %rdx
	movq	%rcx, %rbx
	subq	%rdx, %rbx
	movq	%rbx, %rdx
	leaq	(%rax,%rdx), %rdx
	movq	-32(%rbp), %rax
	addq	$3152, %rax
	movq	%rdx, prof+8(,%rax,8)
.L340:
	movq	b_memchr(%rip), %rax
	andl	$1, %eax
	testb	%al, %al
	je	.L343
	movq	-24(%rbp), %rax
	movq	%rax, %rdi
	call	strlen
	movq	%rax, -40(%rbp)
	cmpq	$999, -40(%rbp)
	jbe	.L344
	movq	$999, -40(%rbp)
.L344:
	movq	-40(%rbp), %rsi
	movq	%rsi, -104(%rbp)
	movabsq	$-3689348814741910323, %rdx
	movq	-104(%rbp), %rax
	mulq	%rdx
	movq	%rdx, %rax
	shrq	$3, %rax
	leaq	3452(%rax), %rdx
	movq	prof+8(,%rdx,8), %rdx
	addq	$1, %rdx
	addq	$3452, %rax
	movq	%rdx, prof+8(,%rax,8)
	cmpq	$99, -40(%rbp)
	jbe	.L345
	movq	$99, -40(%rbp)
.L345:
	movq	-40(%rbp), %rax
	addq	$3352, %rax
	movq	prof+8(,%rax,8), %rax
	leaq	1(%rax), %rdx
	movq	-40(%rbp), %rax
	addq	$3352, %rax
	movq	%rdx, prof+8(,%rax,8)
.L343:
	movl	$0, -48(%rbp)
	movl	$0, %eax
	call	backtrace2
	movq	%rax, -64(%rbp)
	movl	$0, -44(%rbp)
	jmp	.L346
.L348:
	movl	-44(%rbp), %eax
	cltq
	addq	$400, %rax
	movq	call_sites(,%rax,8), %rax
	cmpq	-64(%rbp), %rax
	jne	.L347
	movl	$1, -48(%rbp)
.L347:
	addl	$1, -44(%rbp)
.L346:
	movl	-44(%rbp), %eax
	movslq	%eax, %rdx
	movq	prof+29512(%rip), %rax
	cmpq	%rax, %rdx
	jb	.L348
	cmpl	$0, -48(%rbp)
	jne	.L349
	movq	prof+29512(%rip), %rax
	cmpq	$99, %rax
	ja	.L349
	movq	prof+29512(%rip), %rax
	leaq	400(%rax), %rdx
	movq	-64(%rbp), %rax
	movq	%rax, call_sites(,%rdx,8)
	movq	prof+29512(%rip), %rax
	addq	$1, %rax
	movq	%rax, prof+29512(%rip)
.L349:
	movq	-24(%rbp), %rdx
	movq	-72(%rbp), %rax
	movq	%rdx, %rcx
	subq	%rax, %rcx
	movq	%rcx, %rax
	cmpq	-88(%rbp), %rax
	je	.L350
	movq	-24(%rbp), %rax
	jmp	.L351
.L350:
	movq	prof+29448(%rip), %rax
	subq	$1, %rax
	movq	%rax, prof+29448(%rip)
	movq	prof+29456(%rip), %rax
	addq	$1, %rax
	movq	%rax, prof+29456(%rip)
	movl	$0, %eax
.L351:
	addq	$104, %rsp
	popq	%rbx
	leave
	.cfi_def_cfa 7, 8
	ret
	.cfi_endproc
.LFE13:
	.size	memchr, .-memchr
.globl rawmemchr
	.type	rawmemchr, @function
rawmemchr:
.LFB14:
	.cfi_startproc
	pushq	%rbp
	.cfi_def_cfa_offset 16
	movq	%rsp, %rbp
	.cfi_offset 6, -16
	.cfi_def_cfa_register 6
	subq	$16, %rsp
	movq	%rdi, -8(%rbp)
	movl	%esi, -12(%rbp)
	movl	-12(%rbp), %ecx
	movq	-8(%rbp), %rax
	movq	$-1, %rdx
	movl	%ecx, %esi
	movq	%rax, %rdi
	call	memchr
	leave
	.cfi_def_cfa 7, 8
	ret
	.cfi_endproc
.LFE14:
	.size	rawmemchr, .-rawmemchr
.globl strncpy
	.type	strncpy, @function
strncpy:
.LFB15:
	.cfi_startproc
	pushq	%rbp
	.cfi_def_cfa_offset 16
	movq	%rsp, %rbp
	.cfi_offset 6, -16
	.cfi_def_cfa_register 6
	pushq	%rbx
	subq	$104, %rsp
	movq	%rdi, -72(%rbp)
	movq	%rsi, -80(%rbp)
	movq	%rdx, -88(%rbp)
	.cfi_offset 3, -24
	call	rdtsc
	movq	%rax, prof+35368(%rip)
	movq	$0, -24(%rbp)
	jmp	.L354
.L356:
	movq	-24(%rbp), %rax
	movq	-72(%rbp), %rdx
	addq	%rax, %rdx
	movq	-24(%rbp), %rax
	movq	-80(%rbp), %rcx
	leaq	(%rcx,%rax), %rax
	movzbl	(%rax), %eax
	movb	%al, (%rdx)
	addq	$1, -24(%rbp)
.L354:
	movq	-24(%rbp), %rax
	cmpq	-88(%rbp), %rax
	je	.L355
	movq	-24(%rbp), %rax
	movq	-80(%rbp), %rdx
	leaq	(%rdx,%rax), %rax
	movzbl	(%rax), %eax
	testb	%al, %al
	jne	.L356
.L355:
	movq	-24(%rbp), %rax
	cmpq	-88(%rbp), %rax
	je	.L357
	movq	-24(%rbp), %rax
	movq	-72(%rbp), %rdx
	leaq	(%rdx,%rax), %rax
	movb	$0, (%rax)
.L357:
	movq	-24(%rbp), %rax
	movl	%eax, -52(%rbp)
	movq	prof+35368(%rip), %rdx
	movq	prof+35376(%rip), %rax
	cmpq	%rax, %rdx
	je	.L358
	movq	prof+35368(%rip), %rdx
	movq	prof+35376(%rip), %rax
	subq	%rax, %rdx
	movabsq	$-2147483649, %rax
	cmpq	%rax, %rdx
	ja	.L358
	movq	prof+35368(%rip), %rdx
	movq	prof+35376(%rip), %rax
	movq	%rdx, %rcx
	subq	%rax, %rcx
	movq	%rcx, %rax
	bsrq	%rax, %rax
	xorq	$63, %rax
	movl	$63, %edx
	movl	%edx, %ebx
	subl	%eax, %ebx
	movl	%ebx, %eax
	movslq	%eax, %rdx
	addq	$4290, %rdx
	movq	prof+8(,%rdx,8), %rdx
	addq	$1, %rdx
	cltq
	addq	$4290, %rax
	movq	%rdx, prof+8(,%rax,8)
.L358:
	call	rdtsc
	movq	%rax, prof+35376(%rip)
	movq	b_strcpy(%rip), %rax
	andl	$2, %eax
	testq	%rax, %rax
	je	.L359
	movq	-72(%rbp), %rdx
	movq	-80(%rbp), %rax
	subq	%rax, %rdx
	movq	%rdx, %rax
	sarq	$63, %rax
	shrq	$58, %rax
	addq	%rax, %rdx
	andl	$63, %edx
	movq	%rdx, %rsi
	subq	%rax, %rsi
	movq	%rsi, %rax
	jmp	.L360
.L359:
	movq	-72(%rbp), %rax
	andl	$63, %eax
.L360:
	leaq	4354(%rax), %rdx
	movq	prof+8(,%rdx,8), %rdx
	addq	$1, %rdx
	addq	$4354, %rax
	movq	%rdx, prof+8(,%rax,8)
	movq	prof+35352(%rip), %rax
	addq	$1, %rax
	movq	%rax, prof+35352(%rip)
	cmpl	$16, -52(%rbp)
	jg	.L361
	movq	prof+29520(%rip), %rax
	addq	$1, %rax
	movq	%rax, prof+29520(%rip)
.L361:
	movq	b_strcpy(%rip), %rax
	andl	$8, %eax
	testq	%rax, %rax
	je	.L362
	movl	-52(%rbp), %eax
	cltq
	jmp	.L363
.L362:
	movl	-52(%rbp), %eax
	movslq	%eax, %rdx
	movq	-72(%rbp), %rax
	leaq	(%rdx,%rax), %rax
	movq	%rax, %rdx
	shrq	$4, %rdx
	movq	-72(%rbp), %rax
	shrq	$4, %rax
	movq	%rdx, %rcx
	subq	%rax, %rcx
	movq	%rcx, %rax
	addq	$1, %rax
.L363:
	movq	%rax, -32(%rbp)
	movq	prof+35376(%rip), %rdx
	movq	prof+35368(%rip), %rax
	movq	%rdx, %rbx
	subq	%rax, %rbx
	movq	%rbx, %rax
	cmpq	$1999999, %rax
	ja	.L364
	cmpq	$999, -32(%rbp)
	jbe	.L365
	movq	$999, -32(%rbp)
.L365:
	movq	-32(%rbp), %rsi
	movq	%rsi, -104(%rbp)
	movabsq	$-3689348814741910323, %rdx
	movq	-104(%rbp), %rax
	mulq	%rdx
	movq	%rdx, %rax
	shrq	$3, %rax
	leaq	3790(%rax), %rdx
	movq	prof+8(,%rdx,8), %rdx
	addq	$1, %rdx
	addq	$3790, %rax
	movq	%rdx, prof+8(,%rax,8)
	movq	-32(%rbp), %rcx
	movq	%rcx, -104(%rbp)
	movabsq	$-3689348814741910323, %rdx
	movq	-104(%rbp), %rax
	mulq	%rdx
	movq	%rdx, %rax
	shrq	$3, %rax
	leaq	3990(%rax), %rdx
	movq	prof+8(,%rdx,8), %rdx
	movq	prof+35376(%rip), %rbx
	movq	prof+35368(%rip), %rcx
	movq	%rbx, %rsi
	subq	%rcx, %rsi
	movq	%rsi, %rcx
	addq	%rcx, %rdx
	addq	$3990, %rax
	movq	%rdx, prof+8(,%rax,8)
	cmpq	$99, -32(%rbp)
	jbe	.L366
	movq	$99, -32(%rbp)
.L366:
	movq	-32(%rbp), %rax
	addq	$3690, %rax
	movq	prof+8(,%rax,8), %rax
	leaq	1(%rax), %rdx
	movq	-32(%rbp), %rax
	addq	$3690, %rax
	movq	%rdx, prof+8(,%rax,8)
	movq	-32(%rbp), %rax
	addq	$3890, %rax
	movq	prof+8(,%rax,8), %rax
	movq	prof+35376(%rip), %rcx
	movq	prof+35368(%rip), %rdx
	movq	%rcx, %rbx
	subq	%rdx, %rbx
	movq	%rbx, %rdx
	leaq	(%rax,%rdx), %rdx
	movq	-32(%rbp), %rax
	addq	$3890, %rax
	movq	%rdx, prof+8(,%rax,8)
.L364:
	movq	b_strcpy(%rip), %rax
	andl	$1, %eax
	testb	%al, %al
	je	.L367
	movq	-80(%rbp), %rax
	movq	%rax, %rdi
	call	strlen
	movq	%rax, -40(%rbp)
	cmpq	$999, -40(%rbp)
	jbe	.L368
	movq	$999, -40(%rbp)
.L368:
	movq	-40(%rbp), %rsi
	movq	%rsi, -104(%rbp)
	movabsq	$-3689348814741910323, %rdx
	movq	-104(%rbp), %rax
	mulq	%rdx
	movq	%rdx, %rax
	shrq	$3, %rax
	leaq	4190(%rax), %rdx
	movq	prof+8(,%rdx,8), %rdx
	addq	$1, %rdx
	addq	$4190, %rax
	movq	%rdx, prof+8(,%rax,8)
	cmpq	$99, -40(%rbp)
	jbe	.L369
	movq	$99, -40(%rbp)
.L369:
	movq	-40(%rbp), %rax
	addq	$4090, %rax
	movq	prof+8(,%rax,8), %rax
	leaq	1(%rax), %rdx
	movq	-40(%rbp), %rax
	addq	$4090, %rax
	movq	%rdx, prof+8(,%rax,8)
.L367:
	movl	$0, -48(%rbp)
	movl	$0, %eax
	call	backtrace2
	movq	%rax, -64(%rbp)
	movl	$0, -44(%rbp)
	jmp	.L370
.L372:
	movl	-44(%rbp), %eax
	cltq
	addq	$500, %rax
	movq	call_sites(,%rax,8), %rax
	cmpq	-64(%rbp), %rax
	jne	.L371
	movl	$1, -48(%rbp)
.L371:
	addl	$1, -44(%rbp)
.L370:
	movl	-44(%rbp), %eax
	movslq	%eax, %rdx
	movq	prof+35416(%rip), %rax
	cmpq	%rax, %rdx
	jb	.L372
	cmpl	$0, -48(%rbp)
	jne	.L373
	movq	prof+35416(%rip), %rax
	cmpq	$99, %rax
	ja	.L373
	movq	prof+35416(%rip), %rax
	leaq	500(%rax), %rdx
	movq	-64(%rbp), %rax
	movq	%rax, call_sites(,%rdx,8)
	movq	prof+35416(%rip), %rax
	addq	$1, %rax
	movq	%rax, prof+35416(%rip)
.L373:
	movq	-72(%rbp), %rax
	addq	$104, %rsp
	popq	%rbx
	leave
	.cfi_def_cfa 7, 8
	ret
	.cfi_endproc
.LFE15:
	.size	strncpy, .-strncpy
.globl strcpy2
	.type	strcpy2, @function
strcpy2:
.LFB16:
	.cfi_startproc
	pushq	%rbp
	.cfi_def_cfa_offset 16
	movq	%rsp, %rbp
	.cfi_offset 6, -16
	.cfi_def_cfa_register 6
	pushq	%rbx
	subq	$104, %rsp
	movq	%rdi, -72(%rbp)
	movq	%rsi, -80(%rbp)
	movl	%edx, -84(%rbp)
	.cfi_offset 3, -24
	call	rdtsc
	movq	%rax, prof+35368(%rip)
	movq	$0, -24(%rbp)
	jmp	.L375
.L376:
	movq	-24(%rbp), %rax
	movq	-72(%rbp), %rdx
	addq	%rax, %rdx
	movq	-24(%rbp), %rax
	movq	-80(%rbp), %rcx
	leaq	(%rcx,%rax), %rax
	movzbl	(%rax), %eax
	movb	%al, (%rdx)
	addq	$1, -24(%rbp)
.L375:
	movq	-24(%rbp), %rax
	movq	-80(%rbp), %rdx
	leaq	(%rdx,%rax), %rax
	movzbl	(%rax), %eax
	testb	%al, %al
	jne	.L376
	movq	-24(%rbp), %rax
	movq	-72(%rbp), %rdx
	leaq	(%rdx,%rax), %rax
	movb	$0, (%rax)
	movq	-24(%rbp), %rax
	movl	%eax, -52(%rbp)
	movq	prof+35368(%rip), %rdx
	movq	prof+35376(%rip), %rax
	cmpq	%rax, %rdx
	je	.L377
	movq	prof+35368(%rip), %rdx
	movq	prof+35376(%rip), %rax
	subq	%rax, %rdx
	movabsq	$-2147483649, %rax
	cmpq	%rax, %rdx
	ja	.L377
	movq	prof+35368(%rip), %rdx
	movq	prof+35376(%rip), %rax
	movq	%rdx, %rcx
	subq	%rax, %rcx
	movq	%rcx, %rax
	bsrq	%rax, %rax
	xorq	$63, %rax
	movl	$63, %edx
	movl	%edx, %ebx
	subl	%eax, %ebx
	movl	%ebx, %eax
	movslq	%eax, %rdx
	addq	$4290, %rdx
	movq	prof+8(,%rdx,8), %rdx
	addq	$1, %rdx
	cltq
	addq	$4290, %rax
	movq	%rdx, prof+8(,%rax,8)
.L377:
	call	rdtsc
	movq	%rax, prof+35376(%rip)
	movq	b_strcpy(%rip), %rax
	andl	$2, %eax
	testq	%rax, %rax
	je	.L378
	movq	-72(%rbp), %rdx
	movq	-80(%rbp), %rax
	subq	%rax, %rdx
	movq	%rdx, %rax
	sarq	$63, %rax
	shrq	$58, %rax
	addq	%rax, %rdx
	andl	$63, %edx
	movq	%rdx, %rsi
	subq	%rax, %rsi
	movq	%rsi, %rax
	jmp	.L379
.L378:
	movq	-72(%rbp), %rax
	andl	$63, %eax
.L379:
	leaq	4354(%rax), %rdx
	movq	prof+8(,%rdx,8), %rdx
	addq	$1, %rdx
	addq	$4354, %rax
	movq	%rdx, prof+8(,%rax,8)
	movq	prof+35352(%rip), %rax
	addq	$1, %rax
	movq	%rax, prof+35352(%rip)
	cmpl	$16, -52(%rbp)
	jg	.L380
	movq	prof+29520(%rip), %rax
	addq	$1, %rax
	movq	%rax, prof+29520(%rip)
.L380:
	movq	b_strcpy(%rip), %rax
	andl	$8, %eax
	testq	%rax, %rax
	je	.L381
	movl	-52(%rbp), %eax
	cltq
	jmp	.L382
.L381:
	movl	-52(%rbp), %eax
	movslq	%eax, %rdx
	movq	-72(%rbp), %rax
	leaq	(%rdx,%rax), %rax
	movq	%rax, %rdx
	shrq	$4, %rdx
	movq	-72(%rbp), %rax
	shrq	$4, %rax
	movq	%rdx, %rcx
	subq	%rax, %rcx
	movq	%rcx, %rax
	addq	$1, %rax
.L382:
	movq	%rax, -32(%rbp)
	movq	prof+35376(%rip), %rdx
	movq	prof+35368(%rip), %rax
	movq	%rdx, %rbx
	subq	%rax, %rbx
	movq	%rbx, %rax
	cmpq	$1999999, %rax
	ja	.L383
	cmpq	$999, -32(%rbp)
	jbe	.L384
	movq	$999, -32(%rbp)
.L384:
	movq	-32(%rbp), %rsi
	movq	%rsi, -104(%rbp)
	movabsq	$-3689348814741910323, %rdx
	movq	-104(%rbp), %rax
	mulq	%rdx
	movq	%rdx, %rax
	shrq	$3, %rax
	leaq	3790(%rax), %rdx
	movq	prof+8(,%rdx,8), %rdx
	addq	$1, %rdx
	addq	$3790, %rax
	movq	%rdx, prof+8(,%rax,8)
	movq	-32(%rbp), %rcx
	movq	%rcx, -104(%rbp)
	movabsq	$-3689348814741910323, %rdx
	movq	-104(%rbp), %rax
	mulq	%rdx
	movq	%rdx, %rax
	shrq	$3, %rax
	leaq	3990(%rax), %rdx
	movq	prof+8(,%rdx,8), %rdx
	movq	prof+35376(%rip), %rbx
	movq	prof+35368(%rip), %rcx
	movq	%rbx, %rsi
	subq	%rcx, %rsi
	movq	%rsi, %rcx
	addq	%rcx, %rdx
	addq	$3990, %rax
	movq	%rdx, prof+8(,%rax,8)
	cmpq	$99, -32(%rbp)
	jbe	.L385
	movq	$99, -32(%rbp)
.L385:
	movq	-32(%rbp), %rax
	addq	$3690, %rax
	movq	prof+8(,%rax,8), %rax
	leaq	1(%rax), %rdx
	movq	-32(%rbp), %rax
	addq	$3690, %rax
	movq	%rdx, prof+8(,%rax,8)
	movq	-32(%rbp), %rax
	addq	$3890, %rax
	movq	prof+8(,%rax,8), %rax
	movq	prof+35376(%rip), %rcx
	movq	prof+35368(%rip), %rdx
	movq	%rcx, %rbx
	subq	%rdx, %rbx
	movq	%rbx, %rdx
	leaq	(%rax,%rdx), %rdx
	movq	-32(%rbp), %rax
	addq	$3890, %rax
	movq	%rdx, prof+8(,%rax,8)
.L383:
	movq	b_strcpy(%rip), %rax
	andl	$1, %eax
	testb	%al, %al
	je	.L386
	movq	-80(%rbp), %rax
	movq	%rax, %rdi
	call	strlen
	movq	%rax, -40(%rbp)
	cmpq	$999, -40(%rbp)
	jbe	.L387
	movq	$999, -40(%rbp)
.L387:
	movq	-40(%rbp), %rsi
	movq	%rsi, -104(%rbp)
	movabsq	$-3689348814741910323, %rdx
	movq	-104(%rbp), %rax
	mulq	%rdx
	movq	%rdx, %rax
	shrq	$3, %rax
	leaq	4190(%rax), %rdx
	movq	prof+8(,%rdx,8), %rdx
	addq	$1, %rdx
	addq	$4190, %rax
	movq	%rdx, prof+8(,%rax,8)
	cmpq	$99, -40(%rbp)
	jbe	.L388
	movq	$99, -40(%rbp)
.L388:
	movq	-40(%rbp), %rax
	addq	$4090, %rax
	movq	prof+8(,%rax,8), %rax
	leaq	1(%rax), %rdx
	movq	-40(%rbp), %rax
	addq	$4090, %rax
	movq	%rdx, prof+8(,%rax,8)
.L386:
	movl	$0, -48(%rbp)
	movl	$0, %eax
	call	backtrace2
	movq	%rax, -64(%rbp)
	movl	$0, -44(%rbp)
	jmp	.L389
.L391:
	movl	-44(%rbp), %eax
	cltq
	addq	$500, %rax
	movq	call_sites(,%rax,8), %rax
	cmpq	-64(%rbp), %rax
	jne	.L390
	movl	$1, -48(%rbp)
.L390:
	addl	$1, -44(%rbp)
.L389:
	movl	-44(%rbp), %eax
	movslq	%eax, %rdx
	movq	prof+35416(%rip), %rax
	cmpq	%rax, %rdx
	jb	.L391
	cmpl	$0, -48(%rbp)
	jne	.L392
	movq	prof+35416(%rip), %rax
	cmpq	$99, %rax
	ja	.L392
	movq	prof+35416(%rip), %rax
	leaq	500(%rax), %rdx
	movq	-64(%rbp), %rax
	movq	%rax, call_sites(,%rdx,8)
	movq	prof+35416(%rip), %rax
	addq	$1, %rax
	movq	%rax, prof+35416(%rip)
.L392:
	cmpl	$0, -84(%rbp)
	je	.L393
	movl	-52(%rbp), %eax
	cltq
	addq	-72(%rbp), %rax
	jmp	.L394
.L393:
	movq	-72(%rbp), %rax
.L394:
	addq	$104, %rsp
	popq	%rbx
	leave
	.cfi_def_cfa 7, 8
	ret
	.cfi_endproc
.LFE16:
	.size	strcpy2, .-strcpy2
.globl strcpy
	.type	strcpy, @function
strcpy:
.LFB17:
	.cfi_startproc
	pushq	%rbp
	.cfi_def_cfa_offset 16
	movq	%rsp, %rbp
	.cfi_offset 6, -16
	.cfi_def_cfa_register 6
	subq	$16, %rsp
	movq	%rdi, -8(%rbp)
	movq	%rsi, -16(%rbp)
	movq	-16(%rbp), %rcx
	movq	-8(%rbp), %rax
	movl	$0, %edx
	movq	%rcx, %rsi
	movq	%rax, %rdi
	call	strcpy2
	leave
	.cfi_def_cfa 7, 8
	ret
	.cfi_endproc
.LFE17:
	.size	strcpy, .-strcpy
.globl stpcpy
	.type	stpcpy, @function
stpcpy:
.LFB18:
	.cfi_startproc
	pushq	%rbp
	.cfi_def_cfa_offset 16
	movq	%rsp, %rbp
	.cfi_offset 6, -16
	.cfi_def_cfa_register 6
	subq	$16, %rsp
	movq	%rdi, -8(%rbp)
	movq	%rsi, -16(%rbp)
	movq	-16(%rbp), %rcx
	movq	-8(%rbp), %rax
	movl	$1, %edx
	movq	%rcx, %rsi
	movq	%rax, %rdi
	call	strcpy2
	leave
	.cfi_def_cfa 7, 8
	ret
	.cfi_endproc
.LFE18:
	.size	stpcpy, .-stpcpy
.globl memcpy
	.type	memcpy, @function
memcpy:
.LFB19:
	.cfi_startproc
	pushq	%rbp
	.cfi_def_cfa_offset 16
	movq	%rsp, %rbp
	.cfi_offset 6, -16
	.cfi_def_cfa_register 6
	pushq	%rbx
	subq	$104, %rsp
	movq	%rdi, -72(%rbp)
	movq	%rsi, -80(%rbp)
	movq	%rdx, -88(%rbp)
	.cfi_offset 3, -24
	call	rdtsc
	movq	%rax, prof+41272(%rip)
	movq	$0, -24(%rbp)
	jmp	.L398
.L399:
	movq	-24(%rbp), %rax
	movq	-72(%rbp), %rdx
	addq	%rax, %rdx
	movq	-24(%rbp), %rax
	movq	-80(%rbp), %rcx
	leaq	(%rcx,%rax), %rax
	movzbl	(%rax), %eax
	movb	%al, (%rdx)
	addq	$1, -24(%rbp)
.L398:
	movq	-24(%rbp), %rax
	cmpq	-88(%rbp), %rax
	jb	.L399
	movq	-24(%rbp), %rax
	movl	%eax, -52(%rbp)
	movq	prof+41272(%rip), %rdx
	movq	prof+41280(%rip), %rax
	cmpq	%rax, %rdx
	je	.L400
	movq	prof+41272(%rip), %rdx
	movq	prof+41280(%rip), %rax
	subq	%rax, %rdx
	movabsq	$-2147483649, %rax
	cmpq	%rax, %rdx
	ja	.L400
	movq	prof+41272(%rip), %rdx
	movq	prof+41280(%rip), %rax
	movq	%rdx, %rcx
	subq	%rax, %rcx
	movq	%rcx, %rax
	bsrq	%rax, %rax
	xorq	$63, %rax
	movl	$63, %edx
	movl	%edx, %ebx
	subl	%eax, %ebx
	movl	%ebx, %eax
	movslq	%eax, %rdx
	addq	$5028, %rdx
	movq	prof+8(,%rdx,8), %rdx
	addq	$1, %rdx
	cltq
	addq	$5028, %rax
	movq	%rdx, prof+8(,%rax,8)
.L400:
	call	rdtsc
	movq	%rax, prof+41280(%rip)
	movq	b_memcpy(%rip), %rax
	andl	$2, %eax
	testq	%rax, %rax
	je	.L401
	movq	-72(%rbp), %rdx
	movq	-80(%rbp), %rax
	subq	%rax, %rdx
	movq	%rdx, %rax
	sarq	$63, %rax
	shrq	$58, %rax
	addq	%rax, %rdx
	andl	$63, %edx
	movq	%rdx, %rsi
	subq	%rax, %rsi
	movq	%rsi, %rax
	jmp	.L402
.L401:
	movq	-72(%rbp), %rax
	andl	$63, %eax
.L402:
	leaq	5092(%rax), %rdx
	movq	prof+8(,%rdx,8), %rdx
	addq	$1, %rdx
	addq	$5092, %rax
	movq	%rdx, prof+8(,%rax,8)
	movq	prof+41256(%rip), %rax
	addq	$1, %rax
	movq	%rax, prof+41256(%rip)
	cmpl	$16, -52(%rbp)
	jg	.L403
	movq	prof+35424(%rip), %rax
	addq	$1, %rax
	movq	%rax, prof+35424(%rip)
.L403:
	movq	b_memcpy(%rip), %rax
	andl	$8, %eax
	testq	%rax, %rax
	je	.L404
	movl	-52(%rbp), %eax
	cltq
	jmp	.L405
.L404:
	movl	-52(%rbp), %eax
	movslq	%eax, %rdx
	movq	-72(%rbp), %rax
	leaq	(%rdx,%rax), %rax
	movq	%rax, %rdx
	shrq	$4, %rdx
	movq	-72(%rbp), %rax
	shrq	$4, %rax
	movq	%rdx, %rcx
	subq	%rax, %rcx
	movq	%rcx, %rax
	addq	$1, %rax
.L405:
	movq	%rax, -32(%rbp)
	movq	prof+41280(%rip), %rdx
	movq	prof+41272(%rip), %rax
	movq	%rdx, %rbx
	subq	%rax, %rbx
	movq	%rbx, %rax
	cmpq	$1999999, %rax
	ja	.L406
	cmpq	$999, -32(%rbp)
	jbe	.L407
	movq	$999, -32(%rbp)
.L407:
	movq	-32(%rbp), %rsi
	movq	%rsi, -104(%rbp)
	movabsq	$-3689348814741910323, %rdx
	movq	-104(%rbp), %rax
	mulq	%rdx
	movq	%rdx, %rax
	shrq	$3, %rax
	leaq	4528(%rax), %rdx
	movq	prof+8(,%rdx,8), %rdx
	addq	$1, %rdx
	addq	$4528, %rax
	movq	%rdx, prof+8(,%rax,8)
	movq	-32(%rbp), %rcx
	movq	%rcx, -104(%rbp)
	movabsq	$-3689348814741910323, %rdx
	movq	-104(%rbp), %rax
	mulq	%rdx
	movq	%rdx, %rax
	shrq	$3, %rax
	leaq	4728(%rax), %rdx
	movq	prof+8(,%rdx,8), %rdx
	movq	prof+41280(%rip), %rbx
	movq	prof+41272(%rip), %rcx
	movq	%rbx, %rsi
	subq	%rcx, %rsi
	movq	%rsi, %rcx
	addq	%rcx, %rdx
	addq	$4728, %rax
	movq	%rdx, prof+8(,%rax,8)
	cmpq	$99, -32(%rbp)
	jbe	.L408
	movq	$99, -32(%rbp)
.L408:
	movq	-32(%rbp), %rax
	addq	$4428, %rax
	movq	prof+8(,%rax,8), %rax
	leaq	1(%rax), %rdx
	movq	-32(%rbp), %rax
	addq	$4428, %rax
	movq	%rdx, prof+8(,%rax,8)
	movq	-32(%rbp), %rax
	addq	$4628, %rax
	movq	prof+8(,%rax,8), %rax
	movq	prof+41280(%rip), %rcx
	movq	prof+41272(%rip), %rdx
	movq	%rcx, %rbx
	subq	%rdx, %rbx
	movq	%rbx, %rdx
	leaq	(%rax,%rdx), %rdx
	movq	-32(%rbp), %rax
	addq	$4628, %rax
	movq	%rdx, prof+8(,%rax,8)
.L406:
	movq	b_memcpy(%rip), %rax
	andl	$1, %eax
	testb	%al, %al
	je	.L409
	movq	-80(%rbp), %rax
	movq	%rax, %rdi
	call	strlen
	movq	%rax, -40(%rbp)
	cmpq	$999, -40(%rbp)
	jbe	.L410
	movq	$999, -40(%rbp)
.L410:
	movq	-40(%rbp), %rsi
	movq	%rsi, -104(%rbp)
	movabsq	$-3689348814741910323, %rdx
	movq	-104(%rbp), %rax
	mulq	%rdx
	movq	%rdx, %rax
	shrq	$3, %rax
	leaq	4928(%rax), %rdx
	movq	prof+8(,%rdx,8), %rdx
	addq	$1, %rdx
	addq	$4928, %rax
	movq	%rdx, prof+8(,%rax,8)
	cmpq	$99, -40(%rbp)
	jbe	.L411
	movq	$99, -40(%rbp)
.L411:
	movq	-40(%rbp), %rax
	addq	$4828, %rax
	movq	prof+8(,%rax,8), %rax
	leaq	1(%rax), %rdx
	movq	-40(%rbp), %rax
	addq	$4828, %rax
	movq	%rdx, prof+8(,%rax,8)
.L409:
	movl	$0, -48(%rbp)
	movl	$0, %eax
	call	backtrace2
	movq	%rax, -64(%rbp)
	movl	$0, -44(%rbp)
	jmp	.L412
.L414:
	movl	-44(%rbp), %eax
	cltq
	addq	$600, %rax
	movq	call_sites(,%rax,8), %rax
	cmpq	-64(%rbp), %rax
	jne	.L413
	movl	$1, -48(%rbp)
.L413:
	addl	$1, -44(%rbp)
.L412:
	movl	-44(%rbp), %eax
	movslq	%eax, %rdx
	movq	prof+41320(%rip), %rax
	cmpq	%rax, %rdx
	jb	.L414
	cmpl	$0, -48(%rbp)
	jne	.L415
	movq	prof+41320(%rip), %rax
	cmpq	$99, %rax
	ja	.L415
	movq	prof+41320(%rip), %rax
	leaq	600(%rax), %rdx
	movq	-64(%rbp), %rax
	movq	%rax, call_sites(,%rdx,8)
	movq	prof+41320(%rip), %rax
	addq	$1, %rax
	movq	%rax, prof+41320(%rip)
.L415:
	movq	-72(%rbp), %rax
	addq	$104, %rsp
	popq	%rbx
	leave
	.cfi_def_cfa 7, 8
	ret
	.cfi_endproc
.LFE19:
	.size	memcpy, .-memcpy
.globl memccpy
	.type	memccpy, @function
memccpy:
.LFB20:
	.cfi_startproc
	pushq	%rbp
	.cfi_def_cfa_offset 16
	movq	%rsp, %rbp
	.cfi_offset 6, -16
	.cfi_def_cfa_register 6
	subq	$48, %rsp
	movq	%rdi, -24(%rbp)
	movq	%rsi, -32(%rbp)
	movl	%edx, -36(%rbp)
	movq	%rcx, -48(%rbp)
	movq	-48(%rbp), %rdx
	movl	-36(%rbp), %ecx
	movq	-24(%rbp), %rax
	movl	%ecx, %esi
	movq	%rax, %rdi
	call	memchr
	movq	%rax, -8(%rbp)
	cmpq	$0, -8(%rbp)
	je	.L417
	movq	-8(%rbp), %rdx
	movq	-24(%rbp), %rax
	movq	%rdx, %rcx
	subq	%rax, %rcx
	movq	%rcx, %rax
	movq	%rax, -48(%rbp)
.L417:
	movq	-48(%rbp), %rdx
	movq	-32(%rbp), %rcx
	movq	-24(%rbp), %rax
	movq	%rcx, %rsi
	movq	%rax, %rdi
	call	memcpy
	leave
	.cfi_def_cfa 7, 8
	ret
	.cfi_endproc
.LFE20:
	.size	memccpy, .-memccpy
.globl strncat
	.type	strncat, @function
strncat:
.LFB21:
	.cfi_startproc
	pushq	%rbp
	.cfi_def_cfa_offset 16
	movq	%rsp, %rbp
	.cfi_offset 6, -16
	.cfi_def_cfa_register 6
	pushq	%rbx
	subq	$120, %rsp
	movq	%rdi, -88(%rbp)
	movq	%rsi, -96(%rbp)
	movq	%rdx, -104(%rbp)
	.cfi_offset 3, -24
	call	rdtsc
	movq	%rax, prof+47176(%rip)
	movq	-88(%rbp), %rax
	movq	%rax, %rdi
	call	strlen
	movq	%rax, -56(%rbp)
	movq	$0, -24(%rbp)
	jmp	.L419
.L421:
	movq	-24(%rbp), %rax
	movq	-56(%rbp), %rdx
	leaq	(%rdx,%rax), %rax
	addq	-88(%rbp), %rax
	movq	-24(%rbp), %rdx
	movq	-96(%rbp), %rcx
	leaq	(%rcx,%rdx), %rdx
	movzbl	(%rdx), %edx
	movb	%dl, (%rax)
	addq	$1, -24(%rbp)
.L419:
	movq	-24(%rbp), %rax
	cmpq	-104(%rbp), %rax
	jae	.L420
	movq	-24(%rbp), %rax
	movq	-96(%rbp), %rdx
	leaq	(%rdx,%rax), %rax
	movzbl	(%rax), %eax
	testb	%al, %al
	jne	.L421
.L420:
	movq	-24(%rbp), %rax
	movq	-56(%rbp), %rdx
	leaq	(%rdx,%rax), %rax
	addq	-88(%rbp), %rax
	movb	$0, (%rax)
	movq	-24(%rbp), %rax
	movq	-56(%rbp), %rdx
	leaq	(%rdx,%rax), %rax
	movq	%rax, -64(%rbp)
	movq	prof+47176(%rip), %rdx
	movq	prof+47184(%rip), %rax
	cmpq	%rax, %rdx
	je	.L422
	movq	prof+47176(%rip), %rdx
	movq	prof+47184(%rip), %rax
	subq	%rax, %rdx
	movabsq	$-2147483649, %rax
	cmpq	%rax, %rdx
	ja	.L422
	movq	prof+47176(%rip), %rdx
	movq	prof+47184(%rip), %rax
	movq	%rdx, %rcx
	subq	%rax, %rcx
	movq	%rcx, %rax
	bsrq	%rax, %rax
	xorq	$63, %rax
	movl	$63, %edx
	movl	%edx, %ebx
	subl	%eax, %ebx
	movl	%ebx, %eax
	movslq	%eax, %rdx
	addq	$5766, %rdx
	movq	prof+8(,%rdx,8), %rdx
	addq	$1, %rdx
	cltq
	addq	$5766, %rax
	movq	%rdx, prof+8(,%rax,8)
.L422:
	call	rdtsc
	movq	%rax, prof+47184(%rip)
	movq	b_strcat(%rip), %rax
	andl	$2, %eax
	testq	%rax, %rax
	je	.L423
	movq	-88(%rbp), %rdx
	movq	-96(%rbp), %rax
	subq	%rax, %rdx
	movq	%rdx, %rax
	sarq	$63, %rax
	shrq	$58, %rax
	addq	%rax, %rdx
	andl	$63, %edx
	movq	%rdx, %rsi
	subq	%rax, %rsi
	movq	%rsi, %rax
	jmp	.L424
.L423:
	movq	-88(%rbp), %rax
	andl	$63, %eax
.L424:
	leaq	5830(%rax), %rdx
	movq	prof+8(,%rdx,8), %rdx
	addq	$1, %rdx
	addq	$5830, %rax
	movq	%rdx, prof+8(,%rax,8)
	movq	prof+47160(%rip), %rax
	addq	$1, %rax
	movq	%rax, prof+47160(%rip)
	cmpq	$16, -64(%rbp)
	ja	.L425
	movq	prof+41328(%rip), %rax
	addq	$1, %rax
	movq	%rax, prof+41328(%rip)
.L425:
	movq	b_strcat(%rip), %rax
	andl	$8, %eax
	testq	%rax, %rax
	jne	.L426
	movq	-88(%rbp), %rax
	addq	-64(%rbp), %rax
	movq	%rax, %rdx
	shrq	$4, %rdx
	movq	-88(%rbp), %rax
	shrq	$4, %rax
	movq	%rdx, %rcx
	subq	%rax, %rcx
	movq	%rcx, %rax
	addq	$1, %rax
	jmp	.L427
.L426:
	movq	-64(%rbp), %rax
.L427:
	movq	%rax, -32(%rbp)
	movq	prof+47184(%rip), %rdx
	movq	prof+47176(%rip), %rax
	movq	%rdx, %rbx
	subq	%rax, %rbx
	movq	%rbx, %rax
	cmpq	$1999999, %rax
	ja	.L428
	cmpq	$999, -32(%rbp)
	jbe	.L429
	movq	$999, -32(%rbp)
.L429:
	movq	-32(%rbp), %rsi
	movq	%rsi, -120(%rbp)
	movabsq	$-3689348814741910323, %rdx
	movq	-120(%rbp), %rax
	mulq	%rdx
	movq	%rdx, %rax
	shrq	$3, %rax
	leaq	5266(%rax), %rdx
	movq	prof+8(,%rdx,8), %rdx
	addq	$1, %rdx
	addq	$5266, %rax
	movq	%rdx, prof+8(,%rax,8)
	movq	-32(%rbp), %rcx
	movq	%rcx, -120(%rbp)
	movabsq	$-3689348814741910323, %rdx
	movq	-120(%rbp), %rax
	mulq	%rdx
	movq	%rdx, %rax
	shrq	$3, %rax
	leaq	5466(%rax), %rdx
	movq	prof+8(,%rdx,8), %rdx
	movq	prof+47184(%rip), %rbx
	movq	prof+47176(%rip), %rcx
	movq	%rbx, %rsi
	subq	%rcx, %rsi
	movq	%rsi, %rcx
	addq	%rcx, %rdx
	addq	$5466, %rax
	movq	%rdx, prof+8(,%rax,8)
	cmpq	$99, -32(%rbp)
	jbe	.L430
	movq	$99, -32(%rbp)
.L430:
	movq	-32(%rbp), %rax
	addq	$5166, %rax
	movq	prof+8(,%rax,8), %rax
	leaq	1(%rax), %rdx
	movq	-32(%rbp), %rax
	addq	$5166, %rax
	movq	%rdx, prof+8(,%rax,8)
	movq	-32(%rbp), %rax
	addq	$5366, %rax
	movq	prof+8(,%rax,8), %rax
	movq	prof+47184(%rip), %rcx
	movq	prof+47176(%rip), %rdx
	movq	%rcx, %rbx
	subq	%rdx, %rbx
	movq	%rbx, %rdx
	leaq	(%rax,%rdx), %rdx
	movq	-32(%rbp), %rax
	addq	$5366, %rax
	movq	%rdx, prof+8(,%rax,8)
.L428:
	movq	b_strcat(%rip), %rax
	andl	$1, %eax
	testb	%al, %al
	je	.L431
	movq	-96(%rbp), %rax
	movq	%rax, %rdi
	call	strlen
	movq	%rax, -40(%rbp)
	cmpq	$999, -40(%rbp)
	jbe	.L432
	movq	$999, -40(%rbp)
.L432:
	movq	-40(%rbp), %rsi
	movq	%rsi, -120(%rbp)
	movabsq	$-3689348814741910323, %rdx
	movq	-120(%rbp), %rax
	mulq	%rdx
	movq	%rdx, %rax
	shrq	$3, %rax
	leaq	5666(%rax), %rdx
	movq	prof+8(,%rdx,8), %rdx
	addq	$1, %rdx
	addq	$5666, %rax
	movq	%rdx, prof+8(,%rax,8)
	cmpq	$99, -40(%rbp)
	jbe	.L433
	movq	$99, -40(%rbp)
.L433:
	movq	-40(%rbp), %rax
	addq	$5566, %rax
	movq	prof+8(,%rax,8), %rax
	leaq	1(%rax), %rdx
	movq	-40(%rbp), %rax
	addq	$5566, %rax
	movq	%rdx, prof+8(,%rax,8)
.L431:
	movl	$0, -48(%rbp)
	movl	$0, %eax
	call	backtrace2
	movq	%rax, -72(%rbp)
	movl	$0, -44(%rbp)
	jmp	.L434
.L436:
	movl	-44(%rbp), %eax
	cltq
	addq	$700, %rax
	movq	call_sites(,%rax,8), %rax
	cmpq	-72(%rbp), %rax
	jne	.L435
	movl	$1, -48(%rbp)
.L435:
	addl	$1, -44(%rbp)
.L434:
	movl	-44(%rbp), %eax
	movslq	%eax, %rdx
	movq	prof+47224(%rip), %rax
	cmpq	%rax, %rdx
	jb	.L436
	cmpl	$0, -48(%rbp)
	jne	.L437
	movq	prof+47224(%rip), %rax
	cmpq	$99, %rax
	ja	.L437
	movq	prof+47224(%rip), %rax
	leaq	700(%rax), %rdx
	movq	-72(%rbp), %rax
	movq	%rax, call_sites(,%rdx,8)
	movq	prof+47224(%rip), %rax
	addq	$1, %rax
	movq	%rax, prof+47224(%rip)
.L437:
	movq	-88(%rbp), %rax
	addq	$120, %rsp
	popq	%rbx
	leave
	.cfi_def_cfa 7, 8
	ret
	.cfi_endproc
.LFE21:
	.size	strncat, .-strncat
.globl strcat
	.type	strcat, @function
strcat:
.LFB22:
	.cfi_startproc
	pushq	%rbp
	.cfi_def_cfa_offset 16
	movq	%rsp, %rbp
	.cfi_offset 6, -16
	.cfi_def_cfa_register 6
	subq	$16, %rsp
	movq	%rdi, -8(%rbp)
	movq	%rsi, -16(%rbp)
	movq	-16(%rbp), %rcx
	movq	-8(%rbp), %rax
	movq	$-1, %rdx
	movq	%rcx, %rsi
	movq	%rax, %rdi
	call	strncat
	leave
	.cfi_def_cfa 7, 8
	ret
	.cfi_endproc
.LFE22:
	.size	strcat, .-strcat
.globl strcasecmp
	.type	strcasecmp, @function
strcasecmp:
.LFB23:
	.cfi_startproc
	pushq	%rbp
	.cfi_def_cfa_offset 16
	movq	%rsp, %rbp
	.cfi_offset 6, -16
	.cfi_def_cfa_register 6
	pushq	%rbx
	subq	$88, %rsp
	movq	%rdi, -72(%rbp)
	movq	%rsi, -80(%rbp)
	.cfi_offset 3, -24
	call	rdtsc
	movq	%rax, prof+58984(%rip)
	movq	$0, -24(%rbp)
	movq	-72(%rbp), %rax
	cmpq	-80(%rbp), %rax
	je	.L440
	jmp	.L441
.L442:
	addq	$1, -24(%rbp)
.L441:
	movq	-24(%rbp), %rax
	movq	-72(%rbp), %rdx
	leaq	(%rdx,%rax), %rax
	movzbl	(%rax), %eax
	testb	%al, %al
	je	.L440
	movq	-24(%rbp), %rax
	movq	-72(%rbp), %rdx
	leaq	(%rdx,%rax), %rax
	movzbl	(%rax), %eax
	movsbl	%al, %eax
	movl	%eax, %edi
	call	tolower
	movl	%eax, %ebx
	movq	-24(%rbp), %rax
	movq	-80(%rbp), %rdx
	leaq	(%rdx,%rax), %rax
	movzbl	(%rax), %eax
	movsbl	%al, %eax
	movl	%eax, %edi
	call	tolower
	cmpl	%eax, %ebx
	je	.L442
.L440:
	movq	prof+58984(%rip), %rdx
	movq	prof+58992(%rip), %rax
	cmpq	%rax, %rdx
	je	.L443
	movq	prof+58984(%rip), %rdx
	movq	prof+58992(%rip), %rax
	subq	%rax, %rdx
	movabsq	$-2147483649, %rax
	cmpq	%rax, %rdx
	ja	.L443
	movq	prof+58984(%rip), %rdx
	movq	prof+58992(%rip), %rax
	movq	%rdx, %rcx
	subq	%rax, %rcx
	movq	%rcx, %rax
	bsrq	%rax, %rax
	xorq	$63, %rax
	movl	$63, %edx
	movl	%edx, %ebx
	subl	%eax, %ebx
	movl	%ebx, %eax
	movslq	%eax, %rdx
	addq	$7242, %rdx
	movq	prof+8(,%rdx,8), %rdx
	addq	$1, %rdx
	cltq
	addq	$7242, %rax
	movq	%rdx, prof+8(,%rax,8)
.L443:
	call	rdtsc
	movq	%rax, prof+58992(%rip)
	movq	b_strcasecmp(%rip), %rax
	andl	$2, %eax
	testq	%rax, %rax
	je	.L444
	movq	-72(%rbp), %rdx
	movq	-80(%rbp), %rax
	subq	%rax, %rdx
	movq	%rdx, %rax
	sarq	$63, %rax
	shrq	$58, %rax
	addq	%rax, %rdx
	andl	$63, %edx
	movq	%rdx, %rsi
	subq	%rax, %rsi
	movq	%rsi, %rax
	jmp	.L445
.L444:
	movq	-72(%rbp), %rax
	andl	$63, %eax
.L445:
	leaq	7306(%rax), %rdx
	movq	prof+8(,%rdx,8), %rdx
	addq	$1, %rdx
	addq	$7306, %rax
	movq	%rdx, prof+8(,%rax,8)
	movq	prof+58968(%rip), %rax
	addq	$1, %rax
	movq	%rax, prof+58968(%rip)
	cmpq	$16, -24(%rbp)
	ja	.L446
	movq	prof+53136(%rip), %rax
	addq	$1, %rax
	movq	%rax, prof+53136(%rip)
.L446:
	movq	b_strcasecmp(%rip), %rax
	andl	$8, %eax
	testq	%rax, %rax
	jne	.L447
	movq	-72(%rbp), %rax
	addq	-24(%rbp), %rax
	movq	%rax, %rdx
	shrq	$4, %rdx
	movq	-72(%rbp), %rax
	shrq	$4, %rax
	movq	%rdx, %rcx
	subq	%rax, %rcx
	movq	%rcx, %rax
	addq	$1, %rax
	jmp	.L448
.L447:
	movq	-24(%rbp), %rax
.L448:
	movq	%rax, -32(%rbp)
	movq	prof+58992(%rip), %rdx
	movq	prof+58984(%rip), %rax
	movq	%rdx, %rbx
	subq	%rax, %rbx
	movq	%rbx, %rax
	cmpq	$1999999, %rax
	ja	.L449
	cmpq	$999, -32(%rbp)
	jbe	.L450
	movq	$999, -32(%rbp)
.L450:
	movq	-32(%rbp), %rsi
	movq	%rsi, -88(%rbp)
	movabsq	$-3689348814741910323, %rdx
	movq	-88(%rbp), %rax
	mulq	%rdx
	movq	%rdx, %rax
	shrq	$3, %rax
	leaq	6742(%rax), %rdx
	movq	prof+8(,%rdx,8), %rdx
	addq	$1, %rdx
	addq	$6742, %rax
	movq	%rdx, prof+8(,%rax,8)
	movq	-32(%rbp), %rcx
	movq	%rcx, -88(%rbp)
	movabsq	$-3689348814741910323, %rdx
	movq	-88(%rbp), %rax
	mulq	%rdx
	movq	%rdx, %rax
	shrq	$3, %rax
	leaq	6942(%rax), %rdx
	movq	prof+8(,%rdx,8), %rdx
	movq	prof+58992(%rip), %rbx
	movq	prof+58984(%rip), %rcx
	movq	%rbx, %rsi
	subq	%rcx, %rsi
	movq	%rsi, %rcx
	addq	%rcx, %rdx
	addq	$6942, %rax
	movq	%rdx, prof+8(,%rax,8)
	cmpq	$99, -32(%rbp)
	jbe	.L451
	movq	$99, -32(%rbp)
.L451:
	movq	-32(%rbp), %rax
	addq	$6642, %rax
	movq	prof+8(,%rax,8), %rax
	leaq	1(%rax), %rdx
	movq	-32(%rbp), %rax
	addq	$6642, %rax
	movq	%rdx, prof+8(,%rax,8)
	movq	-32(%rbp), %rax
	addq	$6842, %rax
	movq	prof+8(,%rax,8), %rax
	movq	prof+58992(%rip), %rcx
	movq	prof+58984(%rip), %rdx
	movq	%rcx, %rbx
	subq	%rdx, %rbx
	movq	%rbx, %rdx
	leaq	(%rax,%rdx), %rdx
	movq	-32(%rbp), %rax
	addq	$6842, %rax
	movq	%rdx, prof+8(,%rax,8)
.L449:
	movq	b_strcasecmp(%rip), %rax
	andl	$1, %eax
	testb	%al, %al
	je	.L452
	movq	-80(%rbp), %rax
	movq	%rax, %rdi
	call	strlen
	movq	%rax, -40(%rbp)
	cmpq	$999, -40(%rbp)
	jbe	.L453
	movq	$999, -40(%rbp)
.L453:
	movq	-40(%rbp), %rsi
	movq	%rsi, -88(%rbp)
	movabsq	$-3689348814741910323, %rdx
	movq	-88(%rbp), %rax
	mulq	%rdx
	movq	%rdx, %rax
	shrq	$3, %rax
	leaq	7142(%rax), %rdx
	movq	prof+8(,%rdx,8), %rdx
	addq	$1, %rdx
	addq	$7142, %rax
	movq	%rdx, prof+8(,%rax,8)
	cmpq	$99, -40(%rbp)
	jbe	.L454
	movq	$99, -40(%rbp)
.L454:
	movq	-40(%rbp), %rax
	addq	$7042, %rax
	movq	prof+8(,%rax,8), %rax
	leaq	1(%rax), %rdx
	movq	-40(%rbp), %rax
	addq	$7042, %rax
	movq	%rdx, prof+8(,%rax,8)
.L452:
	movl	$0, -48(%rbp)
	movl	$0, %eax
	call	backtrace2
	movq	%rax, -56(%rbp)
	movl	$0, -44(%rbp)
	jmp	.L455
.L457:
	movl	-44(%rbp), %eax
	cltq
	addq	$900, %rax
	movq	call_sites(,%rax,8), %rax
	cmpq	-56(%rbp), %rax
	jne	.L456
	movl	$1, -48(%rbp)
.L456:
	addl	$1, -44(%rbp)
.L455:
	movl	-44(%rbp), %eax
	movslq	%eax, %rdx
	movq	prof+59032(%rip), %rax
	cmpq	%rax, %rdx
	jb	.L457
	cmpl	$0, -48(%rbp)
	jne	.L458
	movq	prof+59032(%rip), %rax
	cmpq	$99, %rax
	ja	.L458
	movq	prof+59032(%rip), %rax
	leaq	900(%rax), %rdx
	movq	-56(%rbp), %rax
	movq	%rax, call_sites(,%rdx,8)
	movq	prof+59032(%rip), %rax
	addq	$1, %rax
	movq	%rax, prof+59032(%rip)
.L458:
	movq	-24(%rbp), %rax
	movq	-72(%rbp), %rdx
	leaq	(%rdx,%rax), %rax
	movzbl	(%rax), %eax
	movsbl	%al, %eax
	movl	%eax, %edi
	call	tolower
	movl	%eax, %ebx
	movq	-24(%rbp), %rax
	movq	-80(%rbp), %rdx
	leaq	(%rdx,%rax), %rax
	movzbl	(%rax), %eax
	movsbl	%al, %eax
	movl	%eax, %edi
	call	tolower
	cmpl	%eax, %ebx
	jge	.L459
	movl	$-1, %eax
	jmp	.L460
.L459:
	movq	-24(%rbp), %rax
	movq	-72(%rbp), %rdx
	leaq	(%rdx,%rax), %rax
	movzbl	(%rax), %eax
	movsbl	%al, %eax
	movl	%eax, %edi
	call	tolower
	movl	%eax, %ebx
	movq	-24(%rbp), %rax
	movq	-80(%rbp), %rdx
	leaq	(%rdx,%rax), %rax
	movzbl	(%rax), %eax
	movsbl	%al, %eax
	movl	%eax, %edi
	call	tolower
	cmpl	%eax, %ebx
	jle	.L461
	movl	$1, %eax
	jmp	.L460
.L461:
	movl	$0, %eax
.L460:
	addq	$88, %rsp
	popq	%rbx
	leave
	.cfi_def_cfa 7, 8
	ret
	.cfi_endproc
.LFE23:
	.size	strcasecmp, .-strcasecmp
.globl memcmp
	.type	memcmp, @function
memcmp:
.LFB24:
	.cfi_startproc
	pushq	%rbp
	.cfi_def_cfa_offset 16
	movq	%rsp, %rbp
	.cfi_offset 6, -16
	.cfi_def_cfa_register 6
	pushq	%rbx
	subq	$120, %rsp
	movq	%rdi, -88(%rbp)
	movq	%rsi, -96(%rbp)
	movq	%rdx, -104(%rbp)
	movq	$0, -24(%rbp)
	.cfi_offset 3, -24
	call	rdtsc
	movq	%rax, prof+17656(%rip)
	jmp	.L463
.L465:
	addq	$1, -24(%rbp)
.L463:
	movq	-24(%rbp), %rax
	cmpq	-104(%rbp), %rax
	je	.L464
	movq	-24(%rbp), %rax
	movq	-88(%rbp), %rdx
	leaq	(%rdx,%rax), %rax
	movzbl	(%rax), %edx
	movq	-24(%rbp), %rax
	movq	-96(%rbp), %rcx
	leaq	(%rcx,%rax), %rax
	movzbl	(%rax), %eax
	cmpb	%al, %dl
	je	.L465
.L464:
	movq	-24(%rbp), %rax
	movq	%rax, -64(%rbp)
	movq	prof+17656(%rip), %rdx
	movq	prof+17664(%rip), %rax
	cmpq	%rax, %rdx
	je	.L466
	movq	prof+17656(%rip), %rdx
	movq	prof+17664(%rip), %rax
	subq	%rax, %rdx
	movabsq	$-2147483649, %rax
	cmpq	%rax, %rdx
	ja	.L466
	movq	prof+17656(%rip), %rdx
	movq	prof+17664(%rip), %rax
	movq	%rdx, %rcx
	subq	%rax, %rcx
	movq	%rcx, %rax
	bsrq	%rax, %rax
	xorq	$63, %rax
	movl	$63, %edx
	movl	%edx, %ebx
	subl	%eax, %ebx
	movl	%ebx, %eax
	movslq	%eax, %rdx
	addq	$2076, %rdx
	movq	prof+8(,%rdx,8), %rdx
	addq	$1, %rdx
	cltq
	addq	$2076, %rax
	movq	%rdx, prof+8(,%rax,8)
.L466:
	call	rdtsc
	movq	%rax, prof+17664(%rip)
	movq	b_strcmp(%rip), %rax
	andl	$2, %eax
	testq	%rax, %rax
	je	.L467
	movq	-88(%rbp), %rdx
	movq	-96(%rbp), %rax
	subq	%rax, %rdx
	movq	%rdx, %rax
	sarq	$63, %rax
	shrq	$58, %rax
	addq	%rax, %rdx
	andl	$63, %edx
	movq	%rdx, %rsi
	subq	%rax, %rsi
	movq	%rsi, %rax
	jmp	.L468
.L467:
	movq	-88(%rbp), %rax
	andl	$63, %eax
.L468:
	leaq	2140(%rax), %rdx
	movq	prof+8(,%rdx,8), %rdx
	addq	$1, %rdx
	addq	$2140, %rax
	movq	%rdx, prof+8(,%rax,8)
	movq	prof+17640(%rip), %rax
	addq	$1, %rax
	movq	%rax, prof+17640(%rip)
	cmpq	$16, -64(%rbp)
	ja	.L469
	movq	prof+11808(%rip), %rax
	addq	$1, %rax
	movq	%rax, prof+11808(%rip)
.L469:
	movq	b_strcmp(%rip), %rax
	andl	$8, %eax
	testq	%rax, %rax
	jne	.L470
	movq	-88(%rbp), %rax
	addq	-64(%rbp), %rax
	movq	%rax, %rdx
	shrq	$4, %rdx
	movq	-88(%rbp), %rax
	shrq	$4, %rax
	movq	%rdx, %rcx
	subq	%rax, %rcx
	movq	%rcx, %rax
	addq	$1, %rax
	jmp	.L471
.L470:
	movq	-64(%rbp), %rax
.L471:
	movq	%rax, -40(%rbp)
	movq	prof+17664(%rip), %rdx
	movq	prof+17656(%rip), %rax
	movq	%rdx, %rbx
	subq	%rax, %rbx
	movq	%rbx, %rax
	cmpq	$1999999, %rax
	ja	.L472
	cmpq	$999, -40(%rbp)
	jbe	.L473
	movq	$999, -40(%rbp)
.L473:
	movq	-40(%rbp), %rsi
	movq	%rsi, -120(%rbp)
	movabsq	$-3689348814741910323, %rdx
	movq	-120(%rbp), %rax
	mulq	%rdx
	movq	%rdx, %rax
	shrq	$3, %rax
	leaq	1576(%rax), %rdx
	movq	prof+8(,%rdx,8), %rdx
	addq	$1, %rdx
	addq	$1576, %rax
	movq	%rdx, prof+8(,%rax,8)
	movq	-40(%rbp), %rcx
	movq	%rcx, -120(%rbp)
	movabsq	$-3689348814741910323, %rdx
	movq	-120(%rbp), %rax
	mulq	%rdx
	movq	%rdx, %rax
	shrq	$3, %rax
	leaq	1776(%rax), %rdx
	movq	prof+8(,%rdx,8), %rdx
	movq	prof+17664(%rip), %rbx
	movq	prof+17656(%rip), %rcx
	movq	%rbx, %rsi
	subq	%rcx, %rsi
	movq	%rsi, %rcx
	addq	%rcx, %rdx
	addq	$1776, %rax
	movq	%rdx, prof+8(,%rax,8)
	cmpq	$99, -40(%rbp)
	jbe	.L474
	movq	$99, -40(%rbp)
.L474:
	movq	-40(%rbp), %rax
	addq	$1476, %rax
	movq	prof+8(,%rax,8), %rax
	leaq	1(%rax), %rdx
	movq	-40(%rbp), %rax
	addq	$1476, %rax
	movq	%rdx, prof+8(,%rax,8)
	movq	-40(%rbp), %rax
	addq	$1676, %rax
	movq	prof+8(,%rax,8), %rax
	movq	prof+17664(%rip), %rcx
	movq	prof+17656(%rip), %rdx
	movq	%rcx, %rbx
	subq	%rdx, %rbx
	movq	%rbx, %rdx
	leaq	(%rax,%rdx), %rdx
	movq	-40(%rbp), %rax
	addq	$1676, %rax
	movq	%rdx, prof+8(,%rax,8)
.L472:
	movq	b_strcmp(%rip), %rax
	andl	$1, %eax
	testb	%al, %al
	je	.L475
	movq	-96(%rbp), %rax
	movq	%rax, %rdi
	call	strlen
	movq	%rax, -48(%rbp)
	cmpq	$999, -48(%rbp)
	jbe	.L476
	movq	$999, -48(%rbp)
.L476:
	movq	-48(%rbp), %rsi
	movq	%rsi, -120(%rbp)
	movabsq	$-3689348814741910323, %rdx
	movq	-120(%rbp), %rax
	mulq	%rdx
	movq	%rdx, %rax
	shrq	$3, %rax
	leaq	1976(%rax), %rdx
	movq	prof+8(,%rdx,8), %rdx
	addq	$1, %rdx
	addq	$1976, %rax
	movq	%rdx, prof+8(,%rax,8)
	cmpq	$99, -48(%rbp)
	jbe	.L477
	movq	$99, -48(%rbp)
.L477:
	movq	-48(%rbp), %rax
	addq	$1876, %rax
	movq	prof+8(,%rax,8), %rax
	leaq	1(%rax), %rdx
	movq	-48(%rbp), %rax
	addq	$1876, %rax
	movq	%rdx, prof+8(,%rax,8)
.L475:
	movl	$0, -56(%rbp)
	movl	$0, %eax
	call	backtrace2
	movq	%rax, -72(%rbp)
	movl	$0, -52(%rbp)
	jmp	.L478
.L480:
	movl	-52(%rbp), %eax
	cltq
	addq	$200, %rax
	movq	call_sites(,%rax,8), %rax
	cmpq	-72(%rbp), %rax
	jne	.L479
	movl	$1, -56(%rbp)
.L479:
	addl	$1, -52(%rbp)
.L478:
	movl	-52(%rbp), %eax
	movslq	%eax, %rdx
	movq	prof+17704(%rip), %rax
	cmpq	%rax, %rdx
	jb	.L480
	cmpl	$0, -56(%rbp)
	jne	.L481
	movq	prof+17704(%rip), %rax
	cmpq	$99, %rax
	ja	.L481
	movq	prof+17704(%rip), %rax
	leaq	200(%rax), %rdx
	movq	-72(%rbp), %rax
	movq	%rax, call_sites(,%rdx,8)
	movq	prof+17704(%rip), %rax
	addq	$1, %rax
	movq	%rax, prof+17704(%rip)
.L481:
	movq	-24(%rbp), %rax
	movq	-88(%rbp), %rdx
	leaq	(%rdx,%rax), %rax
	movzbl	(%rax), %eax
	movzbl	%al, %edx
	movq	-24(%rbp), %rax
	movq	-96(%rbp), %rcx
	leaq	(%rcx,%rax), %rax
	movzbl	(%rax), %eax
	movzbl	%al, %eax
	movl	%edx, %ecx
	subl	%eax, %ecx
	movl	%ecx, %eax
	cltq
	movq	%rax, -32(%rbp)
	movq	-24(%rbp), %rax
	cmpq	-104(%rbp), %rax
	jne	.L482
	movq	$0, -32(%rbp)
.L482:
	movq	-32(%rbp), %rax
	addq	$120, %rsp
	popq	%rbx
	leave
	.cfi_def_cfa 7, 8
	ret
	.cfi_endproc
.LFE24:
	.size	memcmp, .-memcmp
.globl bsearch
	.type	bsearch, @function
bsearch:
.LFB25:
	.cfi_startproc
	pushq	%rbp
	.cfi_def_cfa_offset 16
	movq	%rsp, %rbp
	.cfi_offset 6, -16
	.cfi_def_cfa_register 6
	pushq	%rbx
	subq	$200, %rsp
	movq	%rdi, -152(%rbp)
	movq	%rsi, -160(%rbp)
	movq	%rdx, -168(%rbp)
	movq	%rcx, -176(%rbp)
	movq	%r8, -184(%rbp)
	movq	-160(%rbp), %rax
	movq	%rax, -88(%rbp)
	movq	-176(%rbp), %rax
	imulq	-168(%rbp), %rax
	movq	%rax, -96(%rbp)
	.cfi_offset 3, -24
	call	rdtsc
	movq	%rax, prof+76696(%rip)
	movq	$0, -24(%rbp)
	movq	-168(%rbp), %rax
	movq	%rax, -32(%rbp)
	jmp	.L484
.L504:
	movq	-32(%rbp), %rax
	movq	-24(%rbp), %rdx
	leaq	(%rdx,%rax), %rax
	shrq	%rax
	movq	%rax, -104(%rbp)
	movq	-104(%rbp), %rax
	imulq	-176(%rbp), %rax
	addq	-160(%rbp), %rax
	movq	%rax, -112(%rbp)
	movq	-112(%rbp), %rdx
	movq	-152(%rbp), %rax
	movq	-184(%rbp), %rcx
	movq	%rdx, %rsi
	movq	%rax, %rdi
	call	*%rcx
	movl	%eax, -116(%rbp)
	cmpl	$0, -116(%rbp)
	jns	.L485
	movq	-104(%rbp), %rax
	movq	%rax, -32(%rbp)
	jmp	.L484
.L485:
	cmpl	$0, -116(%rbp)
	jle	.L486
	movq	-104(%rbp), %rax
	addq	$1, %rax
	movq	%rax, -24(%rbp)
	jmp	.L484
.L486:
	movq	prof+76696(%rip), %rdx
	movq	prof+76704(%rip), %rax
	cmpq	%rax, %rdx
	je	.L487
	movq	prof+76696(%rip), %rdx
	movq	prof+76704(%rip), %rax
	subq	%rax, %rdx
	movabsq	$-2147483649, %rax
	cmpq	%rax, %rdx
	ja	.L487
	movq	prof+76696(%rip), %rdx
	movq	prof+76704(%rip), %rax
	movq	%rdx, %rcx
	subq	%rax, %rcx
	movq	%rcx, %rax
	bsrq	%rax, %rax
	xorq	$63, %rax
	movl	$63, %edx
	movl	%edx, %ebx
	subl	%eax, %ebx
	movl	%ebx, %eax
	movslq	%eax, %rdx
	addq	$9456, %rdx
	movq	prof+8(,%rdx,8), %rdx
	addq	$1, %rdx
	cltq
	addq	$9456, %rax
	movq	%rdx, prof+8(,%rax,8)
.L487:
	call	rdtsc
	movq	%rax, prof+76704(%rip)
	movq	b_bsearch(%rip), %rax
	andl	$2, %eax
	testq	%rax, %rax
	je	.L488
	movq	-88(%rbp), %rdx
	movq	y(%rip), %rax
	subq	%rax, %rdx
	movq	%rdx, %rax
	sarq	$63, %rax
	shrq	$58, %rax
	addq	%rax, %rdx
	andl	$63, %edx
	movq	%rdx, %rsi
	subq	%rax, %rsi
	movq	%rsi, %rax
	jmp	.L489
.L488:
	movq	-88(%rbp), %rax
	andl	$63, %eax
.L489:
	leaq	9520(%rax), %rdx
	movq	prof+8(,%rdx,8), %rdx
	addq	$1, %rdx
	addq	$9520, %rax
	movq	%rdx, prof+8(,%rax,8)
	movq	prof+76680(%rip), %rax
	addq	$1, %rax
	movq	%rax, prof+76680(%rip)
	cmpq	$16, -96(%rbp)
	ja	.L490
	movq	prof+70848(%rip), %rax
	addq	$1, %rax
	movq	%rax, prof+70848(%rip)
.L490:
	movq	b_bsearch(%rip), %rax
	andl	$8, %eax
	testq	%rax, %rax
	jne	.L491
	movq	-88(%rbp), %rax
	addq	-96(%rbp), %rax
	movq	%rax, %rdx
	shrq	$4, %rdx
	movq	-88(%rbp), %rax
	shrq	$4, %rax
	movq	%rdx, %rcx
	subq	%rax, %rcx
	movq	%rcx, %rax
	addq	$1, %rax
	jmp	.L492
.L491:
	movq	-96(%rbp), %rax
.L492:
	movq	%rax, -40(%rbp)
	movq	prof+76704(%rip), %rdx
	movq	prof+76696(%rip), %rax
	movq	%rdx, %rbx
	subq	%rax, %rbx
	movq	%rbx, %rax
	cmpq	$1999999, %rax
	ja	.L493
	cmpq	$999, -40(%rbp)
	jbe	.L494
	movq	$999, -40(%rbp)
.L494:
	movq	-40(%rbp), %rsi
	movq	%rsi, -200(%rbp)
	movabsq	$-3689348814741910323, %rdx
	movq	-200(%rbp), %rax
	mulq	%rdx
	movq	%rdx, %rax
	shrq	$3, %rax
	leaq	8956(%rax), %rdx
	movq	prof+8(,%rdx,8), %rdx
	addq	$1, %rdx
	addq	$8956, %rax
	movq	%rdx, prof+8(,%rax,8)
	movq	-40(%rbp), %rcx
	movq	%rcx, -200(%rbp)
	movabsq	$-3689348814741910323, %rdx
	movq	-200(%rbp), %rax
	mulq	%rdx
	movq	%rdx, %rax
	shrq	$3, %rax
	leaq	9156(%rax), %rdx
	movq	prof+8(,%rdx,8), %rdx
	movq	prof+76704(%rip), %rbx
	movq	prof+76696(%rip), %rcx
	movq	%rbx, %rsi
	subq	%rcx, %rsi
	movq	%rsi, %rcx
	addq	%rcx, %rdx
	addq	$9156, %rax
	movq	%rdx, prof+8(,%rax,8)
	cmpq	$99, -40(%rbp)
	jbe	.L495
	movq	$99, -40(%rbp)
.L495:
	movq	-40(%rbp), %rax
	addq	$8856, %rax
	movq	prof+8(,%rax,8), %rax
	leaq	1(%rax), %rdx
	movq	-40(%rbp), %rax
	addq	$8856, %rax
	movq	%rdx, prof+8(,%rax,8)
	movq	-40(%rbp), %rax
	addq	$9056, %rax
	movq	prof+8(,%rax,8), %rax
	movq	prof+76704(%rip), %rcx
	movq	prof+76696(%rip), %rdx
	movq	%rcx, %rbx
	subq	%rdx, %rbx
	movq	%rbx, %rdx
	leaq	(%rax,%rdx), %rdx
	movq	-40(%rbp), %rax
	addq	$9056, %rax
	movq	%rdx, prof+8(,%rax,8)
.L493:
	movq	b_bsearch(%rip), %rax
	andl	$1, %eax
	testb	%al, %al
	je	.L496
	movq	y(%rip), %rax
	movq	%rax, %rdi
	call	strlen
	movq	%rax, -48(%rbp)
	cmpq	$999, -48(%rbp)
	jbe	.L497
	movq	$999, -48(%rbp)
.L497:
	movq	-48(%rbp), %rsi
	movq	%rsi, -200(%rbp)
	movabsq	$-3689348814741910323, %rdx
	movq	-200(%rbp), %rax
	mulq	%rdx
	movq	%rdx, %rax
	shrq	$3, %rax
	leaq	9356(%rax), %rdx
	movq	prof+8(,%rdx,8), %rdx
	addq	$1, %rdx
	addq	$9356, %rax
	movq	%rdx, prof+8(,%rax,8)
	cmpq	$99, -48(%rbp)
	jbe	.L498
	movq	$99, -48(%rbp)
.L498:
	movq	-48(%rbp), %rax
	addq	$9256, %rax
	movq	prof+8(,%rax,8), %rax
	leaq	1(%rax), %rdx
	movq	-48(%rbp), %rax
	addq	$9256, %rax
	movq	%rdx, prof+8(,%rax,8)
.L496:
	movl	$0, -56(%rbp)
	movl	$0, %eax
	call	backtrace2
	movq	%rax, -128(%rbp)
	movl	$0, -52(%rbp)
	jmp	.L499
.L501:
	movl	-52(%rbp), %eax
	cltq
	addq	$1200, %rax
	movq	call_sites(,%rax,8), %rax
	cmpq	-128(%rbp), %rax
	jne	.L500
	movl	$1, -56(%rbp)
.L500:
	addl	$1, -52(%rbp)
.L499:
	movl	-52(%rbp), %eax
	movslq	%eax, %rdx
	movq	prof+76744(%rip), %rax
	cmpq	%rax, %rdx
	jb	.L501
	cmpl	$0, -56(%rbp)
	jne	.L502
	movq	prof+76744(%rip), %rax
	cmpq	$99, %rax
	ja	.L502
	movq	prof+76744(%rip), %rax
	leaq	1200(%rax), %rdx
	movq	-128(%rbp), %rax
	movq	%rax, call_sites(,%rdx,8)
	movq	prof+76744(%rip), %rax
	addq	$1, %rax
	movq	%rax, prof+76744(%rip)
.L502:
	movq	-112(%rbp), %rax
	jmp	.L503
.L484:
	movq	-24(%rbp), %rax
	cmpq	-32(%rbp), %rax
	jb	.L504
	movq	prof+76680(%rip), %rax
	subq	$1, %rax
	movq	%rax, prof+76680(%rip)
	movq	prof+76688(%rip), %rax
	addq	$1, %rax
	movq	%rax, prof+76688(%rip)
	movq	prof+76696(%rip), %rdx
	movq	prof+76704(%rip), %rax
	cmpq	%rax, %rdx
	je	.L505
	movq	prof+76696(%rip), %rdx
	movq	prof+76704(%rip), %rax
	subq	%rax, %rdx
	movabsq	$-2147483649, %rax
	cmpq	%rax, %rdx
	ja	.L505
	movq	prof+76696(%rip), %rdx
	movq	prof+76704(%rip), %rax
	movq	%rdx, %rcx
	subq	%rax, %rcx
	movq	%rcx, %rax
	bsrq	%rax, %rax
	xorq	$63, %rax
	movl	$63, %edx
	movl	%edx, %ebx
	subl	%eax, %ebx
	movl	%ebx, %eax
	movslq	%eax, %rdx
	addq	$9456, %rdx
	movq	prof+8(,%rdx,8), %rdx
	addq	$1, %rdx
	cltq
	addq	$9456, %rax
	movq	%rdx, prof+8(,%rax,8)
.L505:
	call	rdtsc
	movq	%rax, prof+76704(%rip)
	movq	b_bsearch(%rip), %rax
	andl	$2, %eax
	testq	%rax, %rax
	je	.L506
	movq	-88(%rbp), %rdx
	movq	y(%rip), %rax
	subq	%rax, %rdx
	movq	%rdx, %rax
	sarq	$63, %rax
	shrq	$58, %rax
	addq	%rax, %rdx
	andl	$63, %edx
	movq	%rdx, %rsi
	subq	%rax, %rsi
	movq	%rsi, %rax
	jmp	.L507
.L506:
	movq	-88(%rbp), %rax
	andl	$63, %eax
.L507:
	leaq	9520(%rax), %rdx
	movq	prof+8(,%rdx,8), %rdx
	addq	$1, %rdx
	addq	$9520, %rax
	movq	%rdx, prof+8(,%rax,8)
	movq	prof+76680(%rip), %rax
	addq	$1, %rax
	movq	%rax, prof+76680(%rip)
	cmpq	$16, -96(%rbp)
	ja	.L508
	movq	prof+70848(%rip), %rax
	addq	$1, %rax
	movq	%rax, prof+70848(%rip)
.L508:
	movq	b_bsearch(%rip), %rax
	andl	$8, %eax
	testq	%rax, %rax
	jne	.L509
	movq	-88(%rbp), %rax
	addq	-96(%rbp), %rax
	movq	%rax, %rdx
	shrq	$4, %rdx
	movq	-88(%rbp), %rax
	shrq	$4, %rax
	movq	%rdx, %rcx
	subq	%rax, %rcx
	movq	%rcx, %rax
	addq	$1, %rax
	jmp	.L510
.L509:
	movq	-96(%rbp), %rax
.L510:
	movq	%rax, -64(%rbp)
	movq	prof+76704(%rip), %rdx
	movq	prof+76696(%rip), %rax
	movq	%rdx, %rbx
	subq	%rax, %rbx
	movq	%rbx, %rax
	cmpq	$1999999, %rax
	ja	.L511
	cmpq	$999, -64(%rbp)
	jbe	.L512
	movq	$999, -64(%rbp)
.L512:
	movq	-64(%rbp), %rsi
	movq	%rsi, -200(%rbp)
	movabsq	$-3689348814741910323, %rdx
	movq	-200(%rbp), %rax
	mulq	%rdx
	movq	%rdx, %rax
	shrq	$3, %rax
	leaq	8956(%rax), %rdx
	movq	prof+8(,%rdx,8), %rdx
	addq	$1, %rdx
	addq	$8956, %rax
	movq	%rdx, prof+8(,%rax,8)
	movq	-64(%rbp), %rcx
	movq	%rcx, -200(%rbp)
	movabsq	$-3689348814741910323, %rdx
	movq	-200(%rbp), %rax
	mulq	%rdx
	movq	%rdx, %rax
	shrq	$3, %rax
	leaq	9156(%rax), %rdx
	movq	prof+8(,%rdx,8), %rdx
	movq	prof+76704(%rip), %rbx
	movq	prof+76696(%rip), %rcx
	movq	%rbx, %rsi
	subq	%rcx, %rsi
	movq	%rsi, %rcx
	addq	%rcx, %rdx
	addq	$9156, %rax
	movq	%rdx, prof+8(,%rax,8)
	cmpq	$99, -64(%rbp)
	jbe	.L513
	movq	$99, -64(%rbp)
.L513:
	movq	-64(%rbp), %rax
	addq	$8856, %rax
	movq	prof+8(,%rax,8), %rax
	leaq	1(%rax), %rdx
	movq	-64(%rbp), %rax
	addq	$8856, %rax
	movq	%rdx, prof+8(,%rax,8)
	movq	-64(%rbp), %rax
	addq	$9056, %rax
	movq	prof+8(,%rax,8), %rax
	movq	prof+76704(%rip), %rcx
	movq	prof+76696(%rip), %rdx
	movq	%rcx, %rbx
	subq	%rdx, %rbx
	movq	%rbx, %rdx
	leaq	(%rax,%rdx), %rdx
	movq	-64(%rbp), %rax
	addq	$9056, %rax
	movq	%rdx, prof+8(,%rax,8)
.L511:
	movq	b_bsearch(%rip), %rax
	andl	$1, %eax
	testb	%al, %al
	je	.L514
	movq	y(%rip), %rax
	movq	%rax, %rdi
	call	strlen
	movq	%rax, -72(%rbp)
	cmpq	$999, -72(%rbp)
	jbe	.L515
	movq	$999, -72(%rbp)
.L515:
	movq	-72(%rbp), %rsi
	movq	%rsi, -200(%rbp)
	movabsq	$-3689348814741910323, %rdx
	movq	-200(%rbp), %rax
	mulq	%rdx
	movq	%rdx, %rax
	shrq	$3, %rax
	leaq	9356(%rax), %rdx
	movq	prof+8(,%rdx,8), %rdx
	addq	$1, %rdx
	addq	$9356, %rax
	movq	%rdx, prof+8(,%rax,8)
	cmpq	$99, -72(%rbp)
	jbe	.L516
	movq	$99, -72(%rbp)
.L516:
	movq	-72(%rbp), %rax
	addq	$9256, %rax
	movq	prof+8(,%rax,8), %rax
	leaq	1(%rax), %rdx
	movq	-72(%rbp), %rax
	addq	$9256, %rax
	movq	%rdx, prof+8(,%rax,8)
.L514:
	movl	$0, -80(%rbp)
	movl	$0, %eax
	call	backtrace2
	movq	%rax, -136(%rbp)
	movl	$0, -76(%rbp)
	jmp	.L517
.L519:
	movl	-76(%rbp), %eax
	cltq
	addq	$1200, %rax
	movq	call_sites(,%rax,8), %rax
	cmpq	-136(%rbp), %rax
	jne	.L518
	movl	$1, -80(%rbp)
.L518:
	addl	$1, -76(%rbp)
.L517:
	movl	-76(%rbp), %eax
	movslq	%eax, %rdx
	movq	prof+76744(%rip), %rax
	cmpq	%rax, %rdx
	jb	.L519
	cmpl	$0, -80(%rbp)
	jne	.L520
	movq	prof+76744(%rip), %rax
	cmpq	$99, %rax
	ja	.L520
	movq	prof+76744(%rip), %rax
	leaq	1200(%rax), %rdx
	movq	-136(%rbp), %rax
	movq	%rax, call_sites(,%rdx,8)
	movq	prof+76744(%rip), %rax
	addq	$1, %rax
	movq	%rax, prof+76744(%rip)
.L520:
	movl	$0, %eax
.L503:
	addq	$200, %rsp
	popq	%rbx
	leave
	.cfi_def_cfa 7, 8
	ret
	.cfi_endproc
.LFE25:
	.size	bsearch, .-bsearch
.globl lsearch
	.type	lsearch, @function
lsearch:
.LFB26:
	.cfi_startproc
	pushq	%rbp
	.cfi_def_cfa_offset 16
	movq	%rsp, %rbp
	.cfi_offset 6, -16
	.cfi_def_cfa_register 6
	pushq	%rbx
	subq	$168, %rsp
	movq	%rdi, -120(%rbp)
	movq	%rsi, -128(%rbp)
	movq	%rdx, -136(%rbp)
	movq	%rcx, -144(%rbp)
	movq	%r8, -152(%rbp)
	movq	-128(%rbp), %rax
	movq	%rax, -72(%rbp)
	movq	-136(%rbp), %rax
	imulq	-144(%rbp), %rax
	movq	%rax, -80(%rbp)
	.cfi_offset 3, -24
	call	rdtsc
	movq	%rax, prof+82600(%rip)
	movq	-136(%rbp), %rax
	imulq	-144(%rbp), %rax
	addq	-128(%rbp), %rax
	movq	%rax, -88(%rbp)
	jmp	.L522
.L541:
	movq	-128(%rbp), %rdx
	movq	-120(%rbp), %rax
	movq	-152(%rbp), %rcx
	movq	%rdx, %rsi
	movq	%rax, %rdi
	call	*%rcx
	testl	%eax, %eax
	jne	.L523
	movq	prof+82600(%rip), %rdx
	movq	prof+82608(%rip), %rax
	cmpq	%rax, %rdx
	je	.L524
	movq	prof+82600(%rip), %rdx
	movq	prof+82608(%rip), %rax
	subq	%rax, %rdx
	movabsq	$-2147483649, %rax
	cmpq	%rax, %rdx
	ja	.L524
	movq	prof+82600(%rip), %rdx
	movq	prof+82608(%rip), %rax
	movq	%rdx, %rcx
	subq	%rax, %rcx
	movq	%rcx, %rax
	bsrq	%rax, %rax
	xorq	$63, %rax
	movl	$63, %edx
	movl	%edx, %ebx
	subl	%eax, %ebx
	movl	%ebx, %eax
	movslq	%eax, %rdx
	addq	$10194, %rdx
	movq	prof+8(,%rdx,8), %rdx
	addq	$1, %rdx
	cltq
	addq	$10194, %rax
	movq	%rdx, prof+8(,%rax,8)
.L524:
	call	rdtsc
	movq	%rax, prof+82608(%rip)
	movq	b_lsearch(%rip), %rax
	andl	$2, %eax
	testq	%rax, %rax
	je	.L525
	movq	-72(%rbp), %rdx
	movq	y(%rip), %rax
	subq	%rax, %rdx
	movq	%rdx, %rax
	sarq	$63, %rax
	shrq	$58, %rax
	addq	%rax, %rdx
	andl	$63, %edx
	movq	%rdx, %rsi
	subq	%rax, %rsi
	movq	%rsi, %rax
	jmp	.L526
.L525:
	movq	-72(%rbp), %rax
	andl	$63, %eax
.L526:
	leaq	10258(%rax), %rdx
	movq	prof+8(,%rdx,8), %rdx
	addq	$1, %rdx
	addq	$10258, %rax
	movq	%rdx, prof+8(,%rax,8)
	movq	prof+82584(%rip), %rax
	addq	$1, %rax
	movq	%rax, prof+82584(%rip)
	cmpq	$16, -80(%rbp)
	ja	.L527
	movq	prof+76752(%rip), %rax
	addq	$1, %rax
	movq	%rax, prof+76752(%rip)
.L527:
	movq	b_lsearch(%rip), %rax
	andl	$8, %eax
	testq	%rax, %rax
	jne	.L528
	movq	-72(%rbp), %rax
	addq	-80(%rbp), %rax
	movq	%rax, %rdx
	shrq	$4, %rdx
	movq	-72(%rbp), %rax
	shrq	$4, %rax
	movq	%rdx, %rcx
	subq	%rax, %rcx
	movq	%rcx, %rax
	addq	$1, %rax
	jmp	.L529
.L528:
	movq	-80(%rbp), %rax
.L529:
	movq	%rax, -24(%rbp)
	movq	prof+82608(%rip), %rdx
	movq	prof+82600(%rip), %rax
	movq	%rdx, %rbx
	subq	%rax, %rbx
	movq	%rbx, %rax
	cmpq	$1999999, %rax
	ja	.L530
	cmpq	$999, -24(%rbp)
	jbe	.L531
	movq	$999, -24(%rbp)
.L531:
	movq	-24(%rbp), %rsi
	movq	%rsi, -168(%rbp)
	movabsq	$-3689348814741910323, %rdx
	movq	-168(%rbp), %rax
	mulq	%rdx
	movq	%rdx, %rax
	shrq	$3, %rax
	leaq	9694(%rax), %rdx
	movq	prof+8(,%rdx,8), %rdx
	addq	$1, %rdx
	addq	$9694, %rax
	movq	%rdx, prof+8(,%rax,8)
	movq	-24(%rbp), %rcx
	movq	%rcx, -168(%rbp)
	movabsq	$-3689348814741910323, %rdx
	movq	-168(%rbp), %rax
	mulq	%rdx
	movq	%rdx, %rax
	shrq	$3, %rax
	leaq	9894(%rax), %rdx
	movq	prof+8(,%rdx,8), %rdx
	movq	prof+82608(%rip), %rbx
	movq	prof+82600(%rip), %rcx
	movq	%rbx, %rsi
	subq	%rcx, %rsi
	movq	%rsi, %rcx
	addq	%rcx, %rdx
	addq	$9894, %rax
	movq	%rdx, prof+8(,%rax,8)
	cmpq	$99, -24(%rbp)
	jbe	.L532
	movq	$99, -24(%rbp)
.L532:
	movq	-24(%rbp), %rax
	addq	$9594, %rax
	movq	prof+8(,%rax,8), %rax
	leaq	1(%rax), %rdx
	movq	-24(%rbp), %rax
	addq	$9594, %rax
	movq	%rdx, prof+8(,%rax,8)
	movq	-24(%rbp), %rax
	addq	$9794, %rax
	movq	prof+8(,%rax,8), %rax
	movq	prof+82608(%rip), %rcx
	movq	prof+82600(%rip), %rdx
	movq	%rcx, %rbx
	subq	%rdx, %rbx
	movq	%rbx, %rdx
	leaq	(%rax,%rdx), %rdx
	movq	-24(%rbp), %rax
	addq	$9794, %rax
	movq	%rdx, prof+8(,%rax,8)
.L530:
	movq	b_lsearch(%rip), %rax
	andl	$1, %eax
	testb	%al, %al
	je	.L533
	movq	y(%rip), %rax
	movq	%rax, %rdi
	call	strlen
	movq	%rax, -32(%rbp)
	cmpq	$999, -32(%rbp)
	jbe	.L534
	movq	$999, -32(%rbp)
.L534:
	movq	-32(%rbp), %rsi
	movq	%rsi, -168(%rbp)
	movabsq	$-3689348814741910323, %rdx
	movq	-168(%rbp), %rax
	mulq	%rdx
	movq	%rdx, %rax
	shrq	$3, %rax
	leaq	10094(%rax), %rdx
	movq	prof+8(,%rdx,8), %rdx
	addq	$1, %rdx
	addq	$10094, %rax
	movq	%rdx, prof+8(,%rax,8)
	cmpq	$99, -32(%rbp)
	jbe	.L535
	movq	$99, -32(%rbp)
.L535:
	movq	-32(%rbp), %rax
	addq	$9994, %rax
	movq	prof+8(,%rax,8), %rax
	leaq	1(%rax), %rdx
	movq	-32(%rbp), %rax
	addq	$9994, %rax
	movq	%rdx, prof+8(,%rax,8)
.L533:
	movl	$0, -40(%rbp)
	movl	$0, %eax
	call	backtrace2
	movq	%rax, -96(%rbp)
	movl	$0, -36(%rbp)
	jmp	.L536
.L538:
	movl	-36(%rbp), %eax
	cltq
	addq	$1300, %rax
	movq	call_sites(,%rax,8), %rax
	cmpq	-96(%rbp), %rax
	jne	.L537
	movl	$1, -40(%rbp)
.L537:
	addl	$1, -36(%rbp)
.L536:
	movl	-36(%rbp), %eax
	movslq	%eax, %rdx
	movq	prof+82648(%rip), %rax
	cmpq	%rax, %rdx
	jb	.L538
	cmpl	$0, -40(%rbp)
	jne	.L539
	movq	prof+82648(%rip), %rax
	cmpq	$99, %rax
	ja	.L539
	movq	prof+82648(%rip), %rax
	leaq	1300(%rax), %rdx
	movq	-96(%rbp), %rax
	movq	%rax, call_sites(,%rdx,8)
	movq	prof+82648(%rip), %rax
	addq	$1, %rax
	movq	%rax, prof+82648(%rip)
.L539:
	movq	-128(%rbp), %rax
	jmp	.L540
.L523:
	movq	-144(%rbp), %rax
	addq	%rax, -128(%rbp)
.L522:
	movq	-128(%rbp), %rax
	cmpq	-88(%rbp), %rax
	jne	.L541
	movq	prof+82600(%rip), %rdx
	movq	prof+82608(%rip), %rax
	cmpq	%rax, %rdx
	je	.L542
	movq	prof+82600(%rip), %rdx
	movq	prof+82608(%rip), %rax
	subq	%rax, %rdx
	movabsq	$-2147483649, %rax
	cmpq	%rax, %rdx
	ja	.L542
	movq	prof+82600(%rip), %rdx
	movq	prof+82608(%rip), %rax
	movq	%rdx, %rcx
	subq	%rax, %rcx
	movq	%rcx, %rax
	bsrq	%rax, %rax
	xorq	$63, %rax
	movl	$63, %edx
	movl	%edx, %ebx
	subl	%eax, %ebx
	movl	%ebx, %eax
	movslq	%eax, %rdx
	addq	$10194, %rdx
	movq	prof+8(,%rdx,8), %rdx
	addq	$1, %rdx
	cltq
	addq	$10194, %rax
	movq	%rdx, prof+8(,%rax,8)
.L542:
	call	rdtsc
	movq	%rax, prof+82608(%rip)
	movq	b_lsearch(%rip), %rax
	andl	$2, %eax
	testq	%rax, %rax
	je	.L543
	movq	-72(%rbp), %rdx
	movq	y(%rip), %rax
	subq	%rax, %rdx
	movq	%rdx, %rax
	sarq	$63, %rax
	shrq	$58, %rax
	addq	%rax, %rdx
	andl	$63, %edx
	movq	%rdx, %rsi
	subq	%rax, %rsi
	movq	%rsi, %rax
	jmp	.L544
.L543:
	movq	-72(%rbp), %rax
	andl	$63, %eax
.L544:
	leaq	10258(%rax), %rdx
	movq	prof+8(,%rdx,8), %rdx
	addq	$1, %rdx
	addq	$10258, %rax
	movq	%rdx, prof+8(,%rax,8)
	movq	prof+82584(%rip), %rax
	addq	$1, %rax
	movq	%rax, prof+82584(%rip)
	cmpq	$16, -80(%rbp)
	ja	.L545
	movq	prof+76752(%rip), %rax
	addq	$1, %rax
	movq	%rax, prof+76752(%rip)
.L545:
	movq	b_lsearch(%rip), %rax
	andl	$8, %eax
	testq	%rax, %rax
	jne	.L546
	movq	-72(%rbp), %rax
	addq	-80(%rbp), %rax
	movq	%rax, %rdx
	shrq	$4, %rdx
	movq	-72(%rbp), %rax
	shrq	$4, %rax
	movq	%rdx, %rcx
	subq	%rax, %rcx
	movq	%rcx, %rax
	addq	$1, %rax
	jmp	.L547
.L546:
	movq	-80(%rbp), %rax
.L547:
	movq	%rax, -48(%rbp)
	movq	prof+82608(%rip), %rdx
	movq	prof+82600(%rip), %rax
	movq	%rdx, %rbx
	subq	%rax, %rbx
	movq	%rbx, %rax
	cmpq	$1999999, %rax
	ja	.L548
	cmpq	$999, -48(%rbp)
	jbe	.L549
	movq	$999, -48(%rbp)
.L549:
	movq	-48(%rbp), %rsi
	movq	%rsi, -168(%rbp)
	movabsq	$-3689348814741910323, %rdx
	movq	-168(%rbp), %rax
	mulq	%rdx
	movq	%rdx, %rax
	shrq	$3, %rax
	leaq	9694(%rax), %rdx
	movq	prof+8(,%rdx,8), %rdx
	addq	$1, %rdx
	addq	$9694, %rax
	movq	%rdx, prof+8(,%rax,8)
	movq	-48(%rbp), %rcx
	movq	%rcx, -168(%rbp)
	movabsq	$-3689348814741910323, %rdx
	movq	-168(%rbp), %rax
	mulq	%rdx
	movq	%rdx, %rax
	shrq	$3, %rax
	leaq	9894(%rax), %rdx
	movq	prof+8(,%rdx,8), %rdx
	movq	prof+82608(%rip), %rbx
	movq	prof+82600(%rip), %rcx
	movq	%rbx, %rsi
	subq	%rcx, %rsi
	movq	%rsi, %rcx
	addq	%rcx, %rdx
	addq	$9894, %rax
	movq	%rdx, prof+8(,%rax,8)
	cmpq	$99, -48(%rbp)
	jbe	.L550
	movq	$99, -48(%rbp)
.L550:
	movq	-48(%rbp), %rax
	addq	$9594, %rax
	movq	prof+8(,%rax,8), %rax
	leaq	1(%rax), %rdx
	movq	-48(%rbp), %rax
	addq	$9594, %rax
	movq	%rdx, prof+8(,%rax,8)
	movq	-48(%rbp), %rax
	addq	$9794, %rax
	movq	prof+8(,%rax,8), %rax
	movq	prof+82608(%rip), %rcx
	movq	prof+82600(%rip), %rdx
	movq	%rcx, %rbx
	subq	%rdx, %rbx
	movq	%rbx, %rdx
	leaq	(%rax,%rdx), %rdx
	movq	-48(%rbp), %rax
	addq	$9794, %rax
	movq	%rdx, prof+8(,%rax,8)
.L548:
	movq	b_lsearch(%rip), %rax
	andl	$1, %eax
	testb	%al, %al
	je	.L551
	movq	y(%rip), %rax
	movq	%rax, %rdi
	call	strlen
	movq	%rax, -56(%rbp)
	cmpq	$999, -56(%rbp)
	jbe	.L552
	movq	$999, -56(%rbp)
.L552:
	movq	-56(%rbp), %rsi
	movq	%rsi, -168(%rbp)
	movabsq	$-3689348814741910323, %rdx
	movq	-168(%rbp), %rax
	mulq	%rdx
	movq	%rdx, %rax
	shrq	$3, %rax
	leaq	10094(%rax), %rdx
	movq	prof+8(,%rdx,8), %rdx
	addq	$1, %rdx
	addq	$10094, %rax
	movq	%rdx, prof+8(,%rax,8)
	cmpq	$99, -56(%rbp)
	jbe	.L553
	movq	$99, -56(%rbp)
.L553:
	movq	-56(%rbp), %rax
	addq	$9994, %rax
	movq	prof+8(,%rax,8), %rax
	leaq	1(%rax), %rdx
	movq	-56(%rbp), %rax
	addq	$9994, %rax
	movq	%rdx, prof+8(,%rax,8)
.L551:
	movl	$0, -64(%rbp)
	movl	$0, %eax
	call	backtrace2
	movq	%rax, -104(%rbp)
	movl	$0, -60(%rbp)
	jmp	.L554
.L556:
	movl	-60(%rbp), %eax
	cltq
	addq	$1300, %rax
	movq	call_sites(,%rax,8), %rax
	cmpq	-104(%rbp), %rax
	jne	.L555
	movl	$1, -64(%rbp)
.L555:
	addl	$1, -60(%rbp)
.L554:
	movl	-60(%rbp), %eax
	movslq	%eax, %rdx
	movq	prof+82648(%rip), %rax
	cmpq	%rax, %rdx
	jb	.L556
	cmpl	$0, -64(%rbp)
	jne	.L557
	movq	prof+82648(%rip), %rax
	cmpq	$99, %rax
	ja	.L557
	movq	prof+82648(%rip), %rax
	leaq	1300(%rax), %rdx
	movq	-104(%rbp), %rax
	movq	%rax, call_sites(,%rdx,8)
	movq	prof+82648(%rip), %rax
	addq	$1, %rax
	movq	%rax, prof+82648(%rip)
.L557:
	movq	prof+82584(%rip), %rax
	subq	$1, %rax
	movq	%rax, prof+82584(%rip)
	movq	prof+82592(%rip), %rax
	addq	$1, %rax
	movq	%rax, prof+82592(%rip)
	movl	$0, %eax
.L540:
	addq	$168, %rsp
	popq	%rbx
	leave
	.cfi_def_cfa 7, 8
	ret
	.cfi_endproc
.LFE26:
	.size	lsearch, .-lsearch
.globl strncmp
	.type	strncmp, @function
strncmp:
.LFB27:
	.cfi_startproc
	pushq	%rbp
	.cfi_def_cfa_offset 16
	movq	%rsp, %rbp
	.cfi_offset 6, -16
	.cfi_def_cfa_register 6
	pushq	%rbx
	subq	$104, %rsp
	movq	%rdi, -72(%rbp)
	movq	%rsi, -80(%rbp)
	movq	%rdx, -88(%rbp)
	.cfi_offset 3, -24
	call	rdtsc
	movq	%rax, prof+17656(%rip)
	movq	$0, -24(%rbp)
	movq	-72(%rbp), %rax
	cmpq	-80(%rbp), %rax
	je	.L559
	jmp	.L560
.L561:
	addq	$1, -24(%rbp)
.L560:
	movq	-24(%rbp), %rax
	cmpq	-88(%rbp), %rax
	je	.L559
	movq	-24(%rbp), %rax
	movq	-72(%rbp), %rdx
	leaq	(%rdx,%rax), %rax
	movzbl	(%rax), %eax
	testb	%al, %al
	je	.L559
	movq	-24(%rbp), %rax
	movq	-72(%rbp), %rdx
	leaq	(%rdx,%rax), %rax
	movzbl	(%rax), %edx
	movq	-24(%rbp), %rax
	movq	-80(%rbp), %rcx
	leaq	(%rcx,%rax), %rax
	movzbl	(%rax), %eax
	cmpb	%al, %dl
	je	.L561
.L559:
	movq	prof+17656(%rip), %rdx
	movq	prof+17664(%rip), %rax
	cmpq	%rax, %rdx
	je	.L562
	movq	prof+17656(%rip), %rdx
	movq	prof+17664(%rip), %rax
	subq	%rax, %rdx
	movabsq	$-2147483649, %rax
	cmpq	%rax, %rdx
	ja	.L562
	movq	prof+17656(%rip), %rdx
	movq	prof+17664(%rip), %rax
	movq	%rdx, %rcx
	subq	%rax, %rcx
	movq	%rcx, %rax
	bsrq	%rax, %rax
	xorq	$63, %rax
	movl	$63, %edx
	movl	%edx, %ebx
	subl	%eax, %ebx
	movl	%ebx, %eax
	movslq	%eax, %rdx
	addq	$2076, %rdx
	movq	prof+8(,%rdx,8), %rdx
	addq	$1, %rdx
	cltq
	addq	$2076, %rax
	movq	%rdx, prof+8(,%rax,8)
.L562:
	call	rdtsc
	movq	%rax, prof+17664(%rip)
	movq	b_strcmp(%rip), %rax
	andl	$2, %eax
	testq	%rax, %rax
	je	.L563
	movq	-72(%rbp), %rdx
	movq	-80(%rbp), %rax
	subq	%rax, %rdx
	movq	%rdx, %rax
	sarq	$63, %rax
	shrq	$58, %rax
	addq	%rax, %rdx
	andl	$63, %edx
	movq	%rdx, %rsi
	subq	%rax, %rsi
	movq	%rsi, %rax
	jmp	.L564
.L563:
	movq	-72(%rbp), %rax
	andl	$63, %eax
.L564:
	leaq	2140(%rax), %rdx
	movq	prof+8(,%rdx,8), %rdx
	addq	$1, %rdx
	addq	$2140, %rax
	movq	%rdx, prof+8(,%rax,8)
	movq	prof+17640(%rip), %rax
	addq	$1, %rax
	movq	%rax, prof+17640(%rip)
	cmpq	$16, -24(%rbp)
	ja	.L565
	movq	prof+11808(%rip), %rax
	addq	$1, %rax
	movq	%rax, prof+11808(%rip)
.L565:
	movq	b_strcmp(%rip), %rax
	andl	$8, %eax
	testq	%rax, %rax
	jne	.L566
	movq	-72(%rbp), %rax
	addq	-24(%rbp), %rax
	movq	%rax, %rdx
	shrq	$4, %rdx
	movq	-72(%rbp), %rax
	shrq	$4, %rax
	movq	%rdx, %rcx
	subq	%rax, %rcx
	movq	%rcx, %rax
	addq	$1, %rax
	jmp	.L567
.L566:
	movq	-24(%rbp), %rax
.L567:
	movq	%rax, -32(%rbp)
	movq	prof+17664(%rip), %rdx
	movq	prof+17656(%rip), %rax
	movq	%rdx, %rbx
	subq	%rax, %rbx
	movq	%rbx, %rax
	cmpq	$1999999, %rax
	ja	.L568
	cmpq	$999, -32(%rbp)
	jbe	.L569
	movq	$999, -32(%rbp)
.L569:
	movq	-32(%rbp), %rsi
	movq	%rsi, -104(%rbp)
	movabsq	$-3689348814741910323, %rdx
	movq	-104(%rbp), %rax
	mulq	%rdx
	movq	%rdx, %rax
	shrq	$3, %rax
	leaq	1576(%rax), %rdx
	movq	prof+8(,%rdx,8), %rdx
	addq	$1, %rdx
	addq	$1576, %rax
	movq	%rdx, prof+8(,%rax,8)
	movq	-32(%rbp), %rcx
	movq	%rcx, -104(%rbp)
	movabsq	$-3689348814741910323, %rdx
	movq	-104(%rbp), %rax
	mulq	%rdx
	movq	%rdx, %rax
	shrq	$3, %rax
	leaq	1776(%rax), %rdx
	movq	prof+8(,%rdx,8), %rdx
	movq	prof+17664(%rip), %rbx
	movq	prof+17656(%rip), %rcx
	movq	%rbx, %rsi
	subq	%rcx, %rsi
	movq	%rsi, %rcx
	addq	%rcx, %rdx
	addq	$1776, %rax
	movq	%rdx, prof+8(,%rax,8)
	cmpq	$99, -32(%rbp)
	jbe	.L570
	movq	$99, -32(%rbp)
.L570:
	movq	-32(%rbp), %rax
	addq	$1476, %rax
	movq	prof+8(,%rax,8), %rax
	leaq	1(%rax), %rdx
	movq	-32(%rbp), %rax
	addq	$1476, %rax
	movq	%rdx, prof+8(,%rax,8)
	movq	-32(%rbp), %rax
	addq	$1676, %rax
	movq	prof+8(,%rax,8), %rax
	movq	prof+17664(%rip), %rcx
	movq	prof+17656(%rip), %rdx
	movq	%rcx, %rbx
	subq	%rdx, %rbx
	movq	%rbx, %rdx
	leaq	(%rax,%rdx), %rdx
	movq	-32(%rbp), %rax
	addq	$1676, %rax
	movq	%rdx, prof+8(,%rax,8)
.L568:
	movq	b_strcmp(%rip), %rax
	andl	$1, %eax
	testb	%al, %al
	je	.L571
	movq	-80(%rbp), %rax
	movq	%rax, %rdi
	call	strlen
	movq	%rax, -40(%rbp)
	cmpq	$999, -40(%rbp)
	jbe	.L572
	movq	$999, -40(%rbp)
.L572:
	movq	-40(%rbp), %rsi
	movq	%rsi, -104(%rbp)
	movabsq	$-3689348814741910323, %rdx
	movq	-104(%rbp), %rax
	mulq	%rdx
	movq	%rdx, %rax
	shrq	$3, %rax
	leaq	1976(%rax), %rdx
	movq	prof+8(,%rdx,8), %rdx
	addq	$1, %rdx
	addq	$1976, %rax
	movq	%rdx, prof+8(,%rax,8)
	cmpq	$99, -40(%rbp)
	jbe	.L573
	movq	$99, -40(%rbp)
.L573:
	movq	-40(%rbp), %rax
	addq	$1876, %rax
	movq	prof+8(,%rax,8), %rax
	leaq	1(%rax), %rdx
	movq	-40(%rbp), %rax
	addq	$1876, %rax
	movq	%rdx, prof+8(,%rax,8)
.L571:
	movl	$0, -48(%rbp)
	movl	$0, %eax
	call	backtrace2
	movq	%rax, -56(%rbp)
	movl	$0, -44(%rbp)
	jmp	.L574
.L576:
	movl	-44(%rbp), %eax
	cltq
	addq	$200, %rax
	movq	call_sites(,%rax,8), %rax
	cmpq	-56(%rbp), %rax
	jne	.L575
	movl	$1, -48(%rbp)
.L575:
	addl	$1, -44(%rbp)
.L574:
	movl	-44(%rbp), %eax
	movslq	%eax, %rdx
	movq	prof+17704(%rip), %rax
	cmpq	%rax, %rdx
	jb	.L576
	cmpl	$0, -48(%rbp)
	jne	.L577
	movq	prof+17704(%rip), %rax
	cmpq	$99, %rax
	ja	.L577
	movq	prof+17704(%rip), %rax
	leaq	200(%rax), %rdx
	movq	-56(%rbp), %rax
	movq	%rax, call_sites(,%rdx,8)
	movq	prof+17704(%rip), %rax
	addq	$1, %rax
	movq	%rax, prof+17704(%rip)
.L577:
	movq	-24(%rbp), %rax
	cmpq	-88(%rbp), %rax
	jne	.L578
	movl	$0, %eax
	jmp	.L579
.L578:
	movq	-24(%rbp), %rax
	movq	-72(%rbp), %rdx
	leaq	(%rdx,%rax), %rax
	movzbl	(%rax), %edx
	movq	-24(%rbp), %rax
	movq	-80(%rbp), %rcx
	leaq	(%rcx,%rax), %rax
	movzbl	(%rax), %eax
	cmpb	%al, %dl
	jne	.L580
	movl	$0, %eax
	jmp	.L579
.L580:
	movq	prof+17640(%rip), %rax
	subq	$1, %rax
	movq	%rax, prof+17640(%rip)
	movq	prof+17648(%rip), %rax
	addq	$1, %rax
	movq	%rax, prof+17648(%rip)
	movq	-24(%rbp), %rax
	movq	-72(%rbp), %rdx
	leaq	(%rdx,%rax), %rax
	movzbl	(%rax), %edx
	movq	-24(%rbp), %rax
	movq	-80(%rbp), %rcx
	leaq	(%rcx,%rax), %rax
	movzbl	(%rax), %eax
	cmpb	%al, %dl
	jge	.L581
	movl	$-1, %eax
	jmp	.L579
.L581:
	movq	-24(%rbp), %rax
	movq	-72(%rbp), %rdx
	leaq	(%rdx,%rax), %rax
	movzbl	(%rax), %edx
	movq	-24(%rbp), %rax
	movq	-80(%rbp), %rcx
	leaq	(%rcx,%rax), %rax
	movzbl	(%rax), %eax
	cmpb	%al, %dl
	jle	.L582
	movl	$1, %eax
	jmp	.L579
.L582:
	jmp	.L558
.L579:
.L558:
	addq	$104, %rsp
	popq	%rbx
	leave
	.cfi_def_cfa 7, 8
	ret
	.cfi_endproc
.LFE27:
	.size	strncmp, .-strncmp
.globl strcmp
	.type	strcmp, @function
strcmp:
.LFB28:
	.cfi_startproc
	pushq	%rbp
	.cfi_def_cfa_offset 16
	movq	%rsp, %rbp
	.cfi_offset 6, -16
	.cfi_def_cfa_register 6
	subq	$16, %rsp
	movq	%rdi, -8(%rbp)
	movq	%rsi, -16(%rbp)
	movq	-16(%rbp), %rcx
	movq	-8(%rbp), %rax
	movq	$-1, %rdx
	movq	%rcx, %rsi
	movq	%rax, %rdi
	call	strncmp
	leave
	.cfi_def_cfa 7, 8
	ret
	.cfi_endproc
.LFE28:
	.size	strcmp, .-strcmp
.globl strndup
	.type	strndup, @function
strndup:
.LFB29:
	.cfi_startproc
	pushq	%rbp
	.cfi_def_cfa_offset 16
	movq	%rsp, %rbp
	.cfi_offset 6, -16
	.cfi_def_cfa_register 6
	pushq	%rbx
	subq	$88, %rsp
	movq	%rdi, -72(%rbp)
	movq	%rsi, -80(%rbp)
	.cfi_offset 3, -24
	call	rdtsc
	movq	%rax, prof+64888(%rip)
	movq	-80(%rbp), %rdx
	movq	-72(%rbp), %rax
	movq	%rdx, %rsi
	movq	%rax, %rdi
	call	strnlen
	movq	%rax, -48(%rbp)
	movq	-48(%rbp), %rax
	addq	$1, %rax
	movq	%rax, %rdi
	call	malloc
	movq	%rax, -56(%rbp)
	movq	-48(%rbp), %rdx
	movq	-72(%rbp), %rcx
	movq	-56(%rbp), %rax
	movq	%rcx, %rsi
	movq	%rax, %rdi
	call	memcpy
	movq	-48(%rbp), %rax
	movq	-56(%rbp), %rdx
	leaq	(%rdx,%rax), %rax
	movb	$0, (%rax)
	movq	prof+64888(%rip), %rdx
	movq	prof+64896(%rip), %rax
	cmpq	%rax, %rdx
	je	.L585
	movq	prof+64888(%rip), %rdx
	movq	prof+64896(%rip), %rax
	subq	%rax, %rdx
	movabsq	$-2147483649, %rax
	cmpq	%rax, %rdx
	ja	.L585
	movq	prof+64888(%rip), %rdx
	movq	prof+64896(%rip), %rax
	movq	%rdx, %rcx
	subq	%rax, %rcx
	movq	%rcx, %rax
	bsrq	%rax, %rax
	xorq	$63, %rax
	movl	$63, %edx
	movl	%edx, %ebx
	subl	%eax, %ebx
	movl	%ebx, %eax
	movslq	%eax, %rdx
	addq	$7980, %rdx
	movq	prof+8(,%rdx,8), %rdx
	addq	$1, %rdx
	cltq
	addq	$7980, %rax
	movq	%rdx, prof+8(,%rax,8)
.L585:
	call	rdtsc
	movq	%rax, prof+64896(%rip)
	movq	b_strdup(%rip), %rax
	andl	$2, %eax
	testq	%rax, %rax
	je	.L586
	movq	-72(%rbp), %rdx
	movq	-56(%rbp), %rax
	subq	%rax, %rdx
	movq	%rdx, %rax
	sarq	$63, %rax
	shrq	$58, %rax
	addq	%rax, %rdx
	andl	$63, %edx
	movq	%rdx, %rsi
	subq	%rax, %rsi
	movq	%rsi, %rax
	jmp	.L587
.L586:
	movq	-72(%rbp), %rax
	andl	$63, %eax
.L587:
	leaq	8044(%rax), %rdx
	movq	prof+8(,%rdx,8), %rdx
	addq	$1, %rdx
	addq	$8044, %rax
	movq	%rdx, prof+8(,%rax,8)
	movq	prof+64872(%rip), %rax
	addq	$1, %rax
	movq	%rax, prof+64872(%rip)
	cmpq	$16, -48(%rbp)
	ja	.L588
	movq	prof+59040(%rip), %rax
	addq	$1, %rax
	movq	%rax, prof+59040(%rip)
.L588:
	movq	b_strdup(%rip), %rax
	andl	$8, %eax
	testq	%rax, %rax
	jne	.L589
	movq	-72(%rbp), %rax
	addq	-48(%rbp), %rax
	movq	%rax, %rdx
	shrq	$4, %rdx
	movq	-72(%rbp), %rax
	shrq	$4, %rax
	movq	%rdx, %rcx
	subq	%rax, %rcx
	movq	%rcx, %rax
	addq	$1, %rax
	jmp	.L590
.L589:
	movq	-48(%rbp), %rax
.L590:
	movq	%rax, -24(%rbp)
	movq	prof+64896(%rip), %rdx
	movq	prof+64888(%rip), %rax
	movq	%rdx, %rbx
	subq	%rax, %rbx
	movq	%rbx, %rax
	cmpq	$1999999, %rax
	ja	.L591
	cmpq	$999, -24(%rbp)
	jbe	.L592
	movq	$999, -24(%rbp)
.L592:
	movq	-24(%rbp), %rsi
	movq	%rsi, -88(%rbp)
	movabsq	$-3689348814741910323, %rdx
	movq	-88(%rbp), %rax
	mulq	%rdx
	movq	%rdx, %rax
	shrq	$3, %rax
	leaq	7480(%rax), %rdx
	movq	prof+8(,%rdx,8), %rdx
	addq	$1, %rdx
	addq	$7480, %rax
	movq	%rdx, prof+8(,%rax,8)
	movq	-24(%rbp), %rcx
	movq	%rcx, -88(%rbp)
	movabsq	$-3689348814741910323, %rdx
	movq	-88(%rbp), %rax
	mulq	%rdx
	movq	%rdx, %rax
	shrq	$3, %rax
	leaq	7680(%rax), %rdx
	movq	prof+8(,%rdx,8), %rdx
	movq	prof+64896(%rip), %rbx
	movq	prof+64888(%rip), %rcx
	movq	%rbx, %rsi
	subq	%rcx, %rsi
	movq	%rsi, %rcx
	addq	%rcx, %rdx
	addq	$7680, %rax
	movq	%rdx, prof+8(,%rax,8)
	cmpq	$99, -24(%rbp)
	jbe	.L593
	movq	$99, -24(%rbp)
.L593:
	movq	-24(%rbp), %rax
	addq	$7380, %rax
	movq	prof+8(,%rax,8), %rax
	leaq	1(%rax), %rdx
	movq	-24(%rbp), %rax
	addq	$7380, %rax
	movq	%rdx, prof+8(,%rax,8)
	movq	-24(%rbp), %rax
	addq	$7580, %rax
	movq	prof+8(,%rax,8), %rax
	movq	prof+64896(%rip), %rcx
	movq	prof+64888(%rip), %rdx
	movq	%rcx, %rbx
	subq	%rdx, %rbx
	movq	%rbx, %rdx
	leaq	(%rax,%rdx), %rdx
	movq	-24(%rbp), %rax
	addq	$7580, %rax
	movq	%rdx, prof+8(,%rax,8)
.L591:
	movq	b_strdup(%rip), %rax
	andl	$1, %eax
	testb	%al, %al
	je	.L594
	movq	-56(%rbp), %rax
	movq	%rax, %rdi
	call	strlen
	movq	%rax, -32(%rbp)
	cmpq	$999, -32(%rbp)
	jbe	.L595
	movq	$999, -32(%rbp)
.L595:
	movq	-32(%rbp), %rsi
	movq	%rsi, -88(%rbp)
	movabsq	$-3689348814741910323, %rdx
	movq	-88(%rbp), %rax
	mulq	%rdx
	movq	%rdx, %rax
	shrq	$3, %rax
	leaq	7880(%rax), %rdx
	movq	prof+8(,%rdx,8), %rdx
	addq	$1, %rdx
	addq	$7880, %rax
	movq	%rdx, prof+8(,%rax,8)
	cmpq	$99, -32(%rbp)
	jbe	.L596
	movq	$99, -32(%rbp)
.L596:
	movq	-32(%rbp), %rax
	addq	$7780, %rax
	movq	prof+8(,%rax,8), %rax
	leaq	1(%rax), %rdx
	movq	-32(%rbp), %rax
	addq	$7780, %rax
	movq	%rdx, prof+8(,%rax,8)
.L594:
	movl	$0, -40(%rbp)
	movl	$0, %eax
	call	backtrace2
	movq	%rax, -64(%rbp)
	movl	$0, -36(%rbp)
	jmp	.L597
.L599:
	movl	-36(%rbp), %eax
	cltq
	addq	$1000, %rax
	movq	call_sites(,%rax,8), %rax
	cmpq	-64(%rbp), %rax
	jne	.L598
	movl	$1, -40(%rbp)
.L598:
	addl	$1, -36(%rbp)
.L597:
	movl	-36(%rbp), %eax
	movslq	%eax, %rdx
	movq	prof+64936(%rip), %rax
	cmpq	%rax, %rdx
	jb	.L599
	cmpl	$0, -40(%rbp)
	jne	.L600
	movq	prof+64936(%rip), %rax
	cmpq	$99, %rax
	ja	.L600
	movq	prof+64936(%rip), %rax
	leaq	1000(%rax), %rdx
	movq	-64(%rbp), %rax
	movq	%rax, call_sites(,%rdx,8)
	movq	prof+64936(%rip), %rax
	addq	$1, %rax
	movq	%rax, prof+64936(%rip)
.L600:
	movq	-56(%rbp), %rax
	addq	$88, %rsp
	popq	%rbx
	leave
	.cfi_def_cfa 7, 8
	ret
	.cfi_endproc
.LFE29:
	.size	strndup, .-strndup
.globl strdup
	.type	strdup, @function
strdup:
.LFB30:
	.cfi_startproc
	pushq	%rbp
	.cfi_def_cfa_offset 16
	movq	%rsp, %rbp
	.cfi_offset 6, -16
	.cfi_def_cfa_register 6
	subq	$16, %rsp
	movq	%rdi, -8(%rbp)
	movq	-8(%rbp), %rax
	movq	$-1, %rsi
	movq	%rax, %rdi
	call	strndup
	leave
	.cfi_def_cfa 7, 8
	ret
	.cfi_endproc
.LFE30:
	.size	strdup, .-strdup
.globl strspn2
	.type	strspn2, @function
strspn2:
.LFB31:
	.cfi_startproc
	pushq	%rbp
	.cfi_def_cfa_offset 16
	movq	%rsp, %rbp
	.cfi_offset 6, -16
	.cfi_def_cfa_register 6
	pushq	%rbx
	subq	$120, %rsp
	movq	%rdi, -88(%rbp)
	movq	%rsi, -96(%rbp)
	movl	%edx, -100(%rbp)
	.cfi_offset 3, -24
	call	rdtsc
	movq	%rax, prof+53080(%rip)
	movq	$0, -24(%rbp)
.L624:
	movl	$0, -28(%rbp)
	movq	-96(%rbp), %rax
	movq	%rax, -40(%rbp)
	jmp	.L603
.L605:
	movq	-40(%rbp), %rax
	movzbl	(%rax), %edx
	movq	-24(%rbp), %rax
	movq	-88(%rbp), %rcx
	leaq	(%rcx,%rax), %rax
	movzbl	(%rax), %eax
	cmpb	%al, %dl
	jne	.L604
	movl	$1, -28(%rbp)
.L604:
	addq	$1, -40(%rbp)
.L603:
	movq	-40(%rbp), %rax
	movzbl	(%rax), %eax
	testb	%al, %al
	jne	.L605
	movq	-24(%rbp), %rax
	movq	-88(%rbp), %rdx
	leaq	(%rdx,%rax), %rax
	movzbl	(%rax), %eax
	testb	%al, %al
	je	.L606
	movl	-28(%rbp), %eax
	cmpl	-100(%rbp), %eax
	jne	.L607
.L606:
	movq	prof+53080(%rip), %rdx
	movq	prof+53088(%rip), %rax
	cmpq	%rax, %rdx
	je	.L608
	movq	prof+53080(%rip), %rdx
	movq	prof+53088(%rip), %rax
	subq	%rax, %rdx
	movabsq	$-2147483649, %rax
	cmpq	%rax, %rdx
	ja	.L608
	movq	prof+53080(%rip), %rdx
	movq	prof+53088(%rip), %rax
	movq	%rdx, %rcx
	subq	%rax, %rcx
	movq	%rcx, %rax
	bsrq	%rax, %rax
	xorq	$63, %rax
	movl	$63, %edx
	movl	%edx, %ebx
	subl	%eax, %ebx
	movl	%ebx, %eax
	movslq	%eax, %rdx
	addq	$6504, %rdx
	movq	prof+8(,%rdx,8), %rdx
	addq	$1, %rdx
	cltq
	addq	$6504, %rax
	movq	%rdx, prof+8(,%rax,8)
.L608:
	call	rdtsc
	movq	%rax, prof+53088(%rip)
	movq	b_strspn(%rip), %rax
	andl	$2, %eax
	testq	%rax, %rax
	je	.L609
	movq	-88(%rbp), %rdx
	movq	-96(%rbp), %rax
	subq	%rax, %rdx
	movq	%rdx, %rax
	sarq	$63, %rax
	shrq	$58, %rax
	addq	%rax, %rdx
	andl	$63, %edx
	movq	%rdx, %rsi
	subq	%rax, %rsi
	movq	%rsi, %rax
	jmp	.L610
.L609:
	movq	-88(%rbp), %rax
	andl	$63, %eax
.L610:
	leaq	6568(%rax), %rdx
	movq	prof+8(,%rdx,8), %rdx
	addq	$1, %rdx
	addq	$6568, %rax
	movq	%rdx, prof+8(,%rax,8)
	movq	prof+53064(%rip), %rax
	addq	$1, %rax
	movq	%rax, prof+53064(%rip)
	cmpq	$16, -24(%rbp)
	ja	.L611
	movq	prof+47232(%rip), %rax
	addq	$1, %rax
	movq	%rax, prof+47232(%rip)
.L611:
	movq	b_strspn(%rip), %rax
	andl	$8, %eax
	testq	%rax, %rax
	jne	.L612
	movq	-88(%rbp), %rax
	addq	-24(%rbp), %rax
	movq	%rax, %rdx
	shrq	$4, %rdx
	movq	-88(%rbp), %rax
	shrq	$4, %rax
	movq	%rdx, %rcx
	subq	%rax, %rcx
	movq	%rcx, %rax
	addq	$1, %rax
	jmp	.L613
.L612:
	movq	-24(%rbp), %rax
.L613:
	movq	%rax, -48(%rbp)
	movq	prof+53088(%rip), %rdx
	movq	prof+53080(%rip), %rax
	movq	%rdx, %rbx
	subq	%rax, %rbx
	movq	%rbx, %rax
	cmpq	$1999999, %rax
	ja	.L614
	cmpq	$999, -48(%rbp)
	jbe	.L615
	movq	$999, -48(%rbp)
.L615:
	movq	-48(%rbp), %rsi
	movq	%rsi, -120(%rbp)
	movabsq	$-3689348814741910323, %rdx
	movq	-120(%rbp), %rax
	mulq	%rdx
	movq	%rdx, %rax
	shrq	$3, %rax
	leaq	6004(%rax), %rdx
	movq	prof+8(,%rdx,8), %rdx
	addq	$1, %rdx
	addq	$6004, %rax
	movq	%rdx, prof+8(,%rax,8)
	movq	-48(%rbp), %rcx
	movq	%rcx, -120(%rbp)
	movabsq	$-3689348814741910323, %rdx
	movq	-120(%rbp), %rax
	mulq	%rdx
	movq	%rdx, %rax
	shrq	$3, %rax
	leaq	6204(%rax), %rdx
	movq	prof+8(,%rdx,8), %rdx
	movq	prof+53088(%rip), %rbx
	movq	prof+53080(%rip), %rcx
	movq	%rbx, %rsi
	subq	%rcx, %rsi
	movq	%rsi, %rcx
	addq	%rcx, %rdx
	addq	$6204, %rax
	movq	%rdx, prof+8(,%rax,8)
	cmpq	$99, -48(%rbp)
	jbe	.L616
	movq	$99, -48(%rbp)
.L616:
	movq	-48(%rbp), %rax
	addq	$5904, %rax
	movq	prof+8(,%rax,8), %rax
	leaq	1(%rax), %rdx
	movq	-48(%rbp), %rax
	addq	$5904, %rax
	movq	%rdx, prof+8(,%rax,8)
	movq	-48(%rbp), %rax
	addq	$6104, %rax
	movq	prof+8(,%rax,8), %rax
	movq	prof+53088(%rip), %rcx
	movq	prof+53080(%rip), %rdx
	movq	%rcx, %rbx
	subq	%rdx, %rbx
	movq	%rbx, %rdx
	leaq	(%rax,%rdx), %rdx
	movq	-48(%rbp), %rax
	addq	$6104, %rax
	movq	%rdx, prof+8(,%rax,8)
.L614:
	movq	b_strspn(%rip), %rax
	andl	$1, %eax
	testb	%al, %al
	je	.L617
	movq	-96(%rbp), %rax
	movq	%rax, %rdi
	call	strlen
	movq	%rax, -56(%rbp)
	cmpq	$999, -56(%rbp)
	jbe	.L618
	movq	$999, -56(%rbp)
.L618:
	movq	-56(%rbp), %rsi
	movq	%rsi, -120(%rbp)
	movabsq	$-3689348814741910323, %rdx
	movq	-120(%rbp), %rax
	mulq	%rdx
	movq	%rdx, %rax
	shrq	$3, %rax
	leaq	6404(%rax), %rdx
	movq	prof+8(,%rdx,8), %rdx
	addq	$1, %rdx
	addq	$6404, %rax
	movq	%rdx, prof+8(,%rax,8)
	cmpq	$99, -56(%rbp)
	jbe	.L619
	movq	$99, -56(%rbp)
.L619:
	movq	-56(%rbp), %rax
	addq	$6304, %rax
	movq	prof+8(,%rax,8), %rax
	leaq	1(%rax), %rdx
	movq	-56(%rbp), %rax
	addq	$6304, %rax
	movq	%rdx, prof+8(,%rax,8)
.L617:
	movl	$0, -64(%rbp)
	movl	$0, %eax
	call	backtrace2
	movq	%rax, -72(%rbp)
	movl	$0, -60(%rbp)
	jmp	.L620
.L622:
	movl	-60(%rbp), %eax
	cltq
	addq	$800, %rax
	movq	call_sites(,%rax,8), %rax
	cmpq	-72(%rbp), %rax
	jne	.L621
	movl	$1, -64(%rbp)
.L621:
	addl	$1, -60(%rbp)
.L620:
	movl	-60(%rbp), %eax
	movslq	%eax, %rdx
	movq	prof+53128(%rip), %rax
	cmpq	%rax, %rdx
	jb	.L622
	cmpl	$0, -64(%rbp)
	jne	.L623
	movq	prof+53128(%rip), %rax
	cmpq	$99, %rax
	ja	.L623
	movq	prof+53128(%rip), %rax
	leaq	800(%rax), %rdx
	movq	-72(%rbp), %rax
	movq	%rax, call_sites(,%rdx,8)
	movq	prof+53128(%rip), %rax
	addq	$1, %rax
	movq	%rax, prof+53128(%rip)
.L623:
	movq	-24(%rbp), %rax
	addq	$120, %rsp
	popq	%rbx
	leave
	.cfi_remember_state
	.cfi_def_cfa 7, 8
	ret
.L607:
	.cfi_restore_state
	addq	$1, -24(%rbp)
	jmp	.L624
	.cfi_endproc
.LFE31:
	.size	strspn2, .-strspn2
.globl strspn
	.type	strspn, @function
strspn:
.LFB32:
	.cfi_startproc
	pushq	%rbp
	.cfi_def_cfa_offset 16
	movq	%rsp, %rbp
	.cfi_offset 6, -16
	.cfi_def_cfa_register 6
	subq	$16, %rsp
	movq	%rdi, -8(%rbp)
	movq	%rsi, -16(%rbp)
	movq	-16(%rbp), %rcx
	movq	-8(%rbp), %rax
	movl	$0, %edx
	movq	%rcx, %rsi
	movq	%rax, %rdi
	call	strspn2
	leave
	.cfi_def_cfa 7, 8
	ret
	.cfi_endproc
.LFE32:
	.size	strspn, .-strspn
.globl strcspn
	.type	strcspn, @function
strcspn:
.LFB33:
	.cfi_startproc
	pushq	%rbp
	.cfi_def_cfa_offset 16
	movq	%rsp, %rbp
	.cfi_offset 6, -16
	.cfi_def_cfa_register 6
	subq	$16, %rsp
	movq	%rdi, -8(%rbp)
	movq	%rsi, -16(%rbp)
	movq	-16(%rbp), %rcx
	movq	-8(%rbp), %rax
	movl	$1, %edx
	movq	%rcx, %rsi
	movq	%rax, %rdi
	call	strspn2
	leave
	.cfi_def_cfa 7, 8
	ret
	.cfi_endproc
.LFE33:
	.size	strcspn, .-strcspn
.globl strpbrk
	.type	strpbrk, @function
strpbrk:
.LFB34:
	.cfi_startproc
	pushq	%rbp
	.cfi_def_cfa_offset 16
	movq	%rsp, %rbp
	.cfi_offset 6, -16
	.cfi_def_cfa_register 6
	subq	$32, %rsp
	movq	%rdi, -24(%rbp)
	movq	%rsi, -32(%rbp)
	movq	-32(%rbp), %rdx
	movq	-24(%rbp), %rax
	movq	%rdx, %rsi
	movq	%rax, %rdi
	call	strcspn
	addq	-24(%rbp), %rax
	movq	%rax, -8(%rbp)
	movq	-8(%rbp), %rax
	movzbl	(%rax), %eax
	testb	%al, %al
	je	.L628
	movq	-8(%rbp), %rax
	jmp	.L629
.L628:
	movl	$0, %eax
.L629:
	leave
	.cfi_def_cfa 7, 8
	ret
	.cfi_endproc
.LFE34:
	.size	strpbrk, .-strpbrk
.globl strstr2
	.type	strstr2, @function
strstr2:
.LFB35:
	.cfi_startproc
	pushq	%rbp
	.cfi_def_cfa_offset 16
	movq	%rsp, %rbp
	.cfi_offset 6, -16
	.cfi_def_cfa_register 6
	pushq	%rbx
	subq	$152, %rsp
	movq	%rdi, -120(%rbp)
	movq	%rsi, -128(%rbp)
	movl	%edx, -132(%rbp)
	.cfi_offset 3, -24
	call	rdtsc
	movq	%rax, prof+23560(%rip)
	movq	-120(%rbp), %rax
	movq	%rax, -80(%rbp)
	jmp	.L631
.L654:
	movq	$0, -24(%rbp)
	jmp	.L632
.L635:
	addq	$1, -24(%rbp)
.L632:
	movq	-24(%rbp), %rax
	movq	-128(%rbp), %rdx
	leaq	(%rdx,%rax), %rax
	movzbl	(%rax), %eax
	testb	%al, %al
	je	.L633
	cmpl	$0, -132(%rbp)
	je	.L634
	movq	-24(%rbp), %rax
	movq	-120(%rbp), %rdx
	leaq	(%rdx,%rax), %rax
	movzbl	(%rax), %eax
	movsbl	%al, %eax
	movl	%eax, %edi
	call	tolower
	movl	%eax, %ebx
	movq	-24(%rbp), %rax
	movq	-128(%rbp), %rdx
	leaq	(%rdx,%rax), %rax
	movzbl	(%rax), %eax
	movsbl	%al, %eax
	movl	%eax, %edi
	call	tolower
	cmpl	%eax, %ebx
	je	.L635
	jmp	.L633
.L634:
	movq	-24(%rbp), %rax
	movq	-120(%rbp), %rdx
	leaq	(%rdx,%rax), %rax
	movzbl	(%rax), %edx
	movq	-24(%rbp), %rax
	movq	-128(%rbp), %rcx
	leaq	(%rcx,%rax), %rax
	movzbl	(%rax), %eax
	cmpb	%al, %dl
	je	.L635
.L633:
	movq	-24(%rbp), %rax
	movq	-128(%rbp), %rdx
	leaq	(%rdx,%rax), %rax
	movzbl	(%rax), %eax
	testb	%al, %al
	jne	.L636
	movq	-120(%rbp), %rdx
	movq	-80(%rbp), %rax
	movq	%rdx, %rcx
	subq	%rax, %rcx
	movq	%rcx, %rax
	movq	%rax, -88(%rbp)
	movq	prof+23560(%rip), %rdx
	movq	prof+23568(%rip), %rax
	cmpq	%rax, %rdx
	je	.L637
	movq	prof+23560(%rip), %rdx
	movq	prof+23568(%rip), %rax
	subq	%rax, %rdx
	movabsq	$-2147483649, %rax
	cmpq	%rax, %rdx
	ja	.L637
	movq	prof+23560(%rip), %rdx
	movq	prof+23568(%rip), %rax
	movq	%rdx, %rbx
	subq	%rax, %rbx
	movq	%rbx, %rax
	bsrq	%rax, %rax
	xorq	$63, %rax
	movl	$63, %edx
	movl	%edx, %esi
	subl	%eax, %esi
	movl	%esi, %eax
	movslq	%eax, %rdx
	addq	$2814, %rdx
	movq	prof+8(,%rdx,8), %rdx
	addq	$1, %rdx
	cltq
	addq	$2814, %rax
	movq	%rdx, prof+8(,%rax,8)
.L637:
	call	rdtsc
	movq	%rax, prof+23568(%rip)
	movq	b_strstr(%rip), %rax
	andl	$2, %eax
	testq	%rax, %rax
	je	.L638
	movq	-80(%rbp), %rdx
	movq	-128(%rbp), %rax
	subq	%rax, %rdx
	movq	%rdx, %rax
	sarq	$63, %rax
	shrq	$58, %rax
	addq	%rax, %rdx
	andl	$63, %edx
	movq	%rdx, %rcx
	subq	%rax, %rcx
	movq	%rcx, %rax
	jmp	.L639
.L638:
	movq	-80(%rbp), %rax
	andl	$63, %eax
.L639:
	leaq	2878(%rax), %rdx
	movq	prof+8(,%rdx,8), %rdx
	addq	$1, %rdx
	addq	$2878, %rax
	movq	%rdx, prof+8(,%rax,8)
	movq	prof+23544(%rip), %rax
	addq	$1, %rax
	movq	%rax, prof+23544(%rip)
	cmpq	$16, -88(%rbp)
	ja	.L640
	movq	prof+17712(%rip), %rax
	addq	$1, %rax
	movq	%rax, prof+17712(%rip)
.L640:
	movq	b_strstr(%rip), %rax
	andl	$8, %eax
	testq	%rax, %rax
	jne	.L641
	movq	-80(%rbp), %rax
	addq	-88(%rbp), %rax
	movq	%rax, %rdx
	shrq	$4, %rdx
	movq	-80(%rbp), %rax
	shrq	$4, %rax
	movq	%rdx, %rbx
	subq	%rax, %rbx
	movq	%rbx, %rax
	addq	$1, %rax
	jmp	.L642
.L641:
	movq	-88(%rbp), %rax
.L642:
	movq	%rax, -32(%rbp)
	movq	prof+23568(%rip), %rdx
	movq	prof+23560(%rip), %rax
	movq	%rdx, %rsi
	subq	%rax, %rsi
	movq	%rsi, %rax
	cmpq	$1999999, %rax
	ja	.L643
	cmpq	$999, -32(%rbp)
	jbe	.L644
	movq	$999, -32(%rbp)
.L644:
	movq	-32(%rbp), %rax
	movq	%rax, -152(%rbp)
	movabsq	$-3689348814741910323, %rdx
	movq	-152(%rbp), %rax
	mulq	%rdx
	movq	%rdx, %rax
	shrq	$3, %rax
	leaq	2314(%rax), %rdx
	movq	prof+8(,%rdx,8), %rdx
	addq	$1, %rdx
	addq	$2314, %rax
	movq	%rdx, prof+8(,%rax,8)
	movq	-32(%rbp), %rcx
	movq	%rcx, -152(%rbp)
	movabsq	$-3689348814741910323, %rdx
	movq	-152(%rbp), %rax
	mulq	%rdx
	movq	%rdx, %rax
	shrq	$3, %rax
	leaq	2514(%rax), %rdx
	movq	prof+8(,%rdx,8), %rdx
	movq	prof+23568(%rip), %rbx
	movq	prof+23560(%rip), %rcx
	movq	%rbx, %rsi
	subq	%rcx, %rsi
	movq	%rsi, %rcx
	addq	%rcx, %rdx
	addq	$2514, %rax
	movq	%rdx, prof+8(,%rax,8)
	cmpq	$99, -32(%rbp)
	jbe	.L645
	movq	$99, -32(%rbp)
.L645:
	movq	-32(%rbp), %rax
	addq	$2214, %rax
	movq	prof+8(,%rax,8), %rax
	leaq	1(%rax), %rdx
	movq	-32(%rbp), %rax
	addq	$2214, %rax
	movq	%rdx, prof+8(,%rax,8)
	movq	-32(%rbp), %rax
	addq	$2414, %rax
	movq	prof+8(,%rax,8), %rax
	movq	prof+23568(%rip), %rcx
	movq	prof+23560(%rip), %rdx
	movq	%rcx, %rbx
	subq	%rdx, %rbx
	movq	%rbx, %rdx
	leaq	(%rax,%rdx), %rdx
	movq	-32(%rbp), %rax
	addq	$2414, %rax
	movq	%rdx, prof+8(,%rax,8)
.L643:
	movq	b_strstr(%rip), %rax
	andl	$1, %eax
	testb	%al, %al
	je	.L646
	movq	-128(%rbp), %rax
	movq	%rax, %rdi
	call	strlen
	movq	%rax, -40(%rbp)
	cmpq	$999, -40(%rbp)
	jbe	.L647
	movq	$999, -40(%rbp)
.L647:
	movq	-40(%rbp), %rsi
	movq	%rsi, -152(%rbp)
	movabsq	$-3689348814741910323, %rdx
	movq	-152(%rbp), %rax
	mulq	%rdx
	movq	%rdx, %rax
	shrq	$3, %rax
	leaq	2714(%rax), %rdx
	movq	prof+8(,%rdx,8), %rdx
	addq	$1, %rdx
	addq	$2714, %rax
	movq	%rdx, prof+8(,%rax,8)
	cmpq	$99, -40(%rbp)
	jbe	.L648
	movq	$99, -40(%rbp)
.L648:
	movq	-40(%rbp), %rax
	addq	$2614, %rax
	movq	prof+8(,%rax,8), %rax
	leaq	1(%rax), %rdx
	movq	-40(%rbp), %rax
	addq	$2614, %rax
	movq	%rdx, prof+8(,%rax,8)
.L646:
	movl	$0, -48(%rbp)
	movl	$0, %eax
	call	backtrace2
	movq	%rax, -96(%rbp)
	movl	$0, -44(%rbp)
	jmp	.L649
.L651:
	movl	-44(%rbp), %eax
	cltq
	addq	$300, %rax
	movq	call_sites(,%rax,8), %rax
	cmpq	-96(%rbp), %rax
	jne	.L650
	movl	$1, -48(%rbp)
.L650:
	addl	$1, -44(%rbp)
.L649:
	movl	-44(%rbp), %eax
	movslq	%eax, %rdx
	movq	prof+23608(%rip), %rax
	cmpq	%rax, %rdx
	jb	.L651
	cmpl	$0, -48(%rbp)
	jne	.L652
	movq	prof+23608(%rip), %rax
	cmpq	$99, %rax
	ja	.L652
	movq	prof+23608(%rip), %rax
	leaq	300(%rax), %rdx
	movq	-96(%rbp), %rax
	movq	%rax, call_sites(,%rdx,8)
	movq	prof+23608(%rip), %rax
	addq	$1, %rax
	movq	%rax, prof+23608(%rip)
.L652:
	movq	-120(%rbp), %rax
	jmp	.L653
.L636:
	addq	$1, -120(%rbp)
.L631:
	movq	-120(%rbp), %rax
	movzbl	(%rax), %eax
	testb	%al, %al
	jne	.L654
	movq	-120(%rbp), %rdx
	movq	-80(%rbp), %rax
	movq	%rdx, %rcx
	subq	%rax, %rcx
	movq	%rcx, %rax
	movq	%rax, -88(%rbp)
	movq	prof+23560(%rip), %rdx
	movq	prof+23568(%rip), %rax
	cmpq	%rax, %rdx
	je	.L655
	movq	prof+23560(%rip), %rdx
	movq	prof+23568(%rip), %rax
	subq	%rax, %rdx
	movabsq	$-2147483649, %rax
	cmpq	%rax, %rdx
	ja	.L655
	movq	prof+23560(%rip), %rdx
	movq	prof+23568(%rip), %rax
	movq	%rdx, %rbx
	subq	%rax, %rbx
	movq	%rbx, %rax
	bsrq	%rax, %rax
	xorq	$63, %rax
	movl	$63, %edx
	movl	%edx, %esi
	subl	%eax, %esi
	movl	%esi, %eax
	movslq	%eax, %rdx
	addq	$2814, %rdx
	movq	prof+8(,%rdx,8), %rdx
	addq	$1, %rdx
	cltq
	addq	$2814, %rax
	movq	%rdx, prof+8(,%rax,8)
.L655:
	call	rdtsc
	movq	%rax, prof+23568(%rip)
	movq	b_strstr(%rip), %rax
	andl	$2, %eax
	testq	%rax, %rax
	je	.L656
	movq	-80(%rbp), %rdx
	movq	-128(%rbp), %rax
	subq	%rax, %rdx
	movq	%rdx, %rax
	sarq	$63, %rax
	shrq	$58, %rax
	addq	%rax, %rdx
	andl	$63, %edx
	movq	%rdx, %rcx
	subq	%rax, %rcx
	movq	%rcx, %rax
	jmp	.L657
.L656:
	movq	-80(%rbp), %rax
	andl	$63, %eax
.L657:
	leaq	2878(%rax), %rdx
	movq	prof+8(,%rdx,8), %rdx
	addq	$1, %rdx
	addq	$2878, %rax
	movq	%rdx, prof+8(,%rax,8)
	movq	prof+23544(%rip), %rax
	addq	$1, %rax
	movq	%rax, prof+23544(%rip)
	cmpq	$16, -88(%rbp)
	ja	.L658
	movq	prof+17712(%rip), %rax
	addq	$1, %rax
	movq	%rax, prof+17712(%rip)
.L658:
	movq	b_strstr(%rip), %rax
	andl	$8, %eax
	testq	%rax, %rax
	jne	.L659
	movq	-80(%rbp), %rax
	addq	-88(%rbp), %rax
	movq	%rax, %rdx
	shrq	$4, %rdx
	movq	-80(%rbp), %rax
	shrq	$4, %rax
	movq	%rdx, %rbx
	subq	%rax, %rbx
	movq	%rbx, %rax
	addq	$1, %rax
	jmp	.L660
.L659:
	movq	-88(%rbp), %rax
.L660:
	movq	%rax, -56(%rbp)
	movq	prof+23568(%rip), %rdx
	movq	prof+23560(%rip), %rax
	movq	%rdx, %rsi
	subq	%rax, %rsi
	movq	%rsi, %rax
	cmpq	$1999999, %rax
	ja	.L661
	cmpq	$999, -56(%rbp)
	jbe	.L662
	movq	$999, -56(%rbp)
.L662:
	movq	-56(%rbp), %rax
	movq	%rax, -152(%rbp)
	movabsq	$-3689348814741910323, %rdx
	movq	-152(%rbp), %rax
	mulq	%rdx
	movq	%rdx, %rax
	shrq	$3, %rax
	leaq	2314(%rax), %rdx
	movq	prof+8(,%rdx,8), %rdx
	addq	$1, %rdx
	addq	$2314, %rax
	movq	%rdx, prof+8(,%rax,8)
	movq	-56(%rbp), %rcx
	movq	%rcx, -152(%rbp)
	movabsq	$-3689348814741910323, %rdx
	movq	-152(%rbp), %rax
	mulq	%rdx
	movq	%rdx, %rax
	shrq	$3, %rax
	leaq	2514(%rax), %rdx
	movq	prof+8(,%rdx,8), %rdx
	movq	prof+23568(%rip), %rbx
	movq	prof+23560(%rip), %rcx
	movq	%rbx, %rsi
	subq	%rcx, %rsi
	movq	%rsi, %rcx
	addq	%rcx, %rdx
	addq	$2514, %rax
	movq	%rdx, prof+8(,%rax,8)
	cmpq	$99, -56(%rbp)
	jbe	.L663
	movq	$99, -56(%rbp)
.L663:
	movq	-56(%rbp), %rax
	addq	$2214, %rax
	movq	prof+8(,%rax,8), %rax
	leaq	1(%rax), %rdx
	movq	-56(%rbp), %rax
	addq	$2214, %rax
	movq	%rdx, prof+8(,%rax,8)
	movq	-56(%rbp), %rax
	addq	$2414, %rax
	movq	prof+8(,%rax,8), %rax
	movq	prof+23568(%rip), %rcx
	movq	prof+23560(%rip), %rdx
	movq	%rcx, %rbx
	subq	%rdx, %rbx
	movq	%rbx, %rdx
	leaq	(%rax,%rdx), %rdx
	movq	-56(%rbp), %rax
	addq	$2414, %rax
	movq	%rdx, prof+8(,%rax,8)
.L661:
	movq	b_strstr(%rip), %rax
	andl	$1, %eax
	testb	%al, %al
	je	.L664
	movq	-128(%rbp), %rax
	movq	%rax, %rdi
	call	strlen
	movq	%rax, -64(%rbp)
	cmpq	$999, -64(%rbp)
	jbe	.L665
	movq	$999, -64(%rbp)
.L665:
	movq	-64(%rbp), %rsi
	movq	%rsi, -152(%rbp)
	movabsq	$-3689348814741910323, %rdx
	movq	-152(%rbp), %rax
	mulq	%rdx
	movq	%rdx, %rax
	shrq	$3, %rax
	leaq	2714(%rax), %rdx
	movq	prof+8(,%rdx,8), %rdx
	addq	$1, %rdx
	addq	$2714, %rax
	movq	%rdx, prof+8(,%rax,8)
	cmpq	$99, -64(%rbp)
	jbe	.L666
	movq	$99, -64(%rbp)
.L666:
	movq	-64(%rbp), %rax
	addq	$2614, %rax
	movq	prof+8(,%rax,8), %rax
	leaq	1(%rax), %rdx
	movq	-64(%rbp), %rax
	addq	$2614, %rax
	movq	%rdx, prof+8(,%rax,8)
.L664:
	movl	$0, -72(%rbp)
	movl	$0, %eax
	call	backtrace2
	movq	%rax, -104(%rbp)
	movl	$0, -68(%rbp)
	jmp	.L667
.L669:
	movl	-68(%rbp), %eax
	cltq
	addq	$300, %rax
	movq	call_sites(,%rax,8), %rax
	cmpq	-104(%rbp), %rax
	jne	.L668
	movl	$1, -72(%rbp)
.L668:
	addl	$1, -68(%rbp)
.L667:
	movl	-68(%rbp), %eax
	movslq	%eax, %rdx
	movq	prof+23608(%rip), %rax
	cmpq	%rax, %rdx
	jb	.L669
	cmpl	$0, -72(%rbp)
	jne	.L670
	movq	prof+23608(%rip), %rax
	cmpq	$99, %rax
	ja	.L670
	movq	prof+23608(%rip), %rax
	leaq	300(%rax), %rdx
	movq	-104(%rbp), %rax
	movq	%rax, call_sites(,%rdx,8)
	movq	prof+23608(%rip), %rax
	addq	$1, %rax
	movq	%rax, prof+23608(%rip)
.L670:
	movq	prof+23544(%rip), %rax
	subq	$1, %rax
	movq	%rax, prof+23544(%rip)
	movq	prof+23552(%rip), %rax
	addq	$1, %rax
	movq	%rax, prof+23552(%rip)
	movl	$0, %eax
.L653:
	addq	$152, %rsp
	popq	%rbx
	leave
	.cfi_def_cfa 7, 8
	ret
	.cfi_endproc
.LFE35:
	.size	strstr2, .-strstr2
.globl strstr
	.type	strstr, @function
strstr:
.LFB36:
	.cfi_startproc
	pushq	%rbp
	.cfi_def_cfa_offset 16
	movq	%rsp, %rbp
	.cfi_offset 6, -16
	.cfi_def_cfa_register 6
	subq	$16, %rsp
	movq	%rdi, -8(%rbp)
	movq	%rsi, -16(%rbp)
	movq	-16(%rbp), %rcx
	movq	-8(%rbp), %rax
	movl	$0, %edx
	movq	%rcx, %rsi
	movq	%rax, %rdi
	call	strstr2
	leave
	.cfi_def_cfa 7, 8
	ret
	.cfi_endproc
.LFE36:
	.size	strstr, .-strstr
.globl strcasestr
	.type	strcasestr, @function
strcasestr:
.LFB37:
	.cfi_startproc
	pushq	%rbp
	.cfi_def_cfa_offset 16
	movq	%rsp, %rbp
	.cfi_offset 6, -16
	.cfi_def_cfa_register 6
	subq	$16, %rsp
	movq	%rdi, -8(%rbp)
	movq	%rsi, -16(%rbp)
	movq	-16(%rbp), %rcx
	movq	-8(%rbp), %rax
	movl	$1, %edx
	movq	%rcx, %rsi
	movq	%rax, %rdi
	call	strstr2
	leave
	.cfi_def_cfa 7, 8
	ret
	.cfi_endproc
.LFE37:
	.size	strcasestr, .-strcasestr
.globl memset
	.type	memset, @function
memset:
.LFB38:
	.cfi_startproc
	pushq	%rbp
	.cfi_def_cfa_offset 16
	movq	%rsp, %rbp
	.cfi_offset 6, -16
	.cfi_def_cfa_register 6
	pushq	%rbx
	subq	$104, %rsp
	movq	%rdi, -72(%rbp)
	movl	%esi, -76(%rbp)
	movq	%rdx, -88(%rbp)
	movq	-88(%rbp), %rax
	movq	%rax, -56(%rbp)
	.cfi_offset 3, -24
	call	rdtsc
	movq	%rax, prof+88504(%rip)
	movq	$0, -24(%rbp)
	jmp	.L674
.L675:
	movq	-24(%rbp), %rax
	movq	-72(%rbp), %rdx
	addq	%rax, %rdx
	movl	-76(%rbp), %eax
	movb	%al, (%rdx)
	addq	$1, -24(%rbp)
.L674:
	movq	-24(%rbp), %rax
	cmpq	-88(%rbp), %rax
	jb	.L675
	movq	prof+88504(%rip), %rdx
	movq	prof+88512(%rip), %rax
	cmpq	%rax, %rdx
	je	.L676
	movq	prof+88504(%rip), %rdx
	movq	prof+88512(%rip), %rax
	subq	%rax, %rdx
	movabsq	$-2147483649, %rax
	cmpq	%rax, %rdx
	ja	.L676
	movq	prof+88504(%rip), %rdx
	movq	prof+88512(%rip), %rax
	movq	%rdx, %rcx
	subq	%rax, %rcx
	movq	%rcx, %rax
	bsrq	%rax, %rax
	xorq	$63, %rax
	movl	$63, %edx
	movl	%edx, %ebx
	subl	%eax, %ebx
	movl	%ebx, %eax
	movslq	%eax, %rdx
	addq	$10932, %rdx
	movq	prof+8(,%rdx,8), %rdx
	addq	$1, %rdx
	cltq
	addq	$10932, %rax
	movq	%rdx, prof+8(,%rax,8)
.L676:
	call	rdtsc
	movq	%rax, prof+88512(%rip)
	movq	b_memset(%rip), %rax
	andl	$2, %eax
	testq	%rax, %rax
	je	.L677
	movq	-72(%rbp), %rdx
	movq	y(%rip), %rax
	subq	%rax, %rdx
	movq	%rdx, %rax
	sarq	$63, %rax
	shrq	$58, %rax
	addq	%rax, %rdx
	andl	$63, %edx
	movq	%rdx, %rsi
	subq	%rax, %rsi
	movq	%rsi, %rax
	jmp	.L678
.L677:
	movq	-72(%rbp), %rax
	andl	$63, %eax
.L678:
	leaq	10996(%rax), %rdx
	movq	prof+8(,%rdx,8), %rdx
	addq	$1, %rdx
	addq	$10996, %rax
	movq	%rdx, prof+8(,%rax,8)
	movq	prof+88488(%rip), %rax
	addq	$1, %rax
	movq	%rax, prof+88488(%rip)
	cmpq	$16, -56(%rbp)
	ja	.L679
	movq	prof+82656(%rip), %rax
	addq	$1, %rax
	movq	%rax, prof+82656(%rip)
.L679:
	movq	b_memset(%rip), %rax
	andl	$8, %eax
	testq	%rax, %rax
	jne	.L680
	movq	-72(%rbp), %rax
	addq	-56(%rbp), %rax
	movq	%rax, %rdx
	shrq	$4, %rdx
	movq	-72(%rbp), %rax
	shrq	$4, %rax
	movq	%rdx, %rcx
	subq	%rax, %rcx
	movq	%rcx, %rax
	addq	$1, %rax
	jmp	.L681
.L680:
	movq	-56(%rbp), %rax
.L681:
	movq	%rax, -32(%rbp)
	movq	prof+88512(%rip), %rdx
	movq	prof+88504(%rip), %rax
	movq	%rdx, %rbx
	subq	%rax, %rbx
	movq	%rbx, %rax
	cmpq	$1999999, %rax
	ja	.L682
	cmpq	$999, -32(%rbp)
	jbe	.L683
	movq	$999, -32(%rbp)
.L683:
	movq	-32(%rbp), %rsi
	movq	%rsi, -104(%rbp)
	movabsq	$-3689348814741910323, %rdx
	movq	-104(%rbp), %rax
	mulq	%rdx
	movq	%rdx, %rax
	shrq	$3, %rax
	leaq	10432(%rax), %rdx
	movq	prof+8(,%rdx,8), %rdx
	addq	$1, %rdx
	addq	$10432, %rax
	movq	%rdx, prof+8(,%rax,8)
	movq	-32(%rbp), %rcx
	movq	%rcx, -104(%rbp)
	movabsq	$-3689348814741910323, %rdx
	movq	-104(%rbp), %rax
	mulq	%rdx
	movq	%rdx, %rax
	shrq	$3, %rax
	leaq	10632(%rax), %rdx
	movq	prof+8(,%rdx,8), %rdx
	movq	prof+88512(%rip), %rbx
	movq	prof+88504(%rip), %rcx
	movq	%rbx, %rsi
	subq	%rcx, %rsi
	movq	%rsi, %rcx
	addq	%rcx, %rdx
	addq	$10632, %rax
	movq	%rdx, prof+8(,%rax,8)
	cmpq	$99, -32(%rbp)
	jbe	.L684
	movq	$99, -32(%rbp)
.L684:
	movq	-32(%rbp), %rax
	addq	$10332, %rax
	movq	prof+8(,%rax,8), %rax
	leaq	1(%rax), %rdx
	movq	-32(%rbp), %rax
	addq	$10332, %rax
	movq	%rdx, prof+8(,%rax,8)
	movq	-32(%rbp), %rax
	addq	$10532, %rax
	movq	prof+8(,%rax,8), %rax
	movq	prof+88512(%rip), %rcx
	movq	prof+88504(%rip), %rdx
	movq	%rcx, %rbx
	subq	%rdx, %rbx
	movq	%rbx, %rdx
	leaq	(%rax,%rdx), %rdx
	movq	-32(%rbp), %rax
	addq	$10532, %rax
	movq	%rdx, prof+8(,%rax,8)
.L682:
	movq	b_memset(%rip), %rax
	andl	$1, %eax
	testb	%al, %al
	je	.L685
	movq	y(%rip), %rax
	movq	%rax, %rdi
	call	strlen
	movq	%rax, -40(%rbp)
	cmpq	$999, -40(%rbp)
	jbe	.L686
	movq	$999, -40(%rbp)
.L686:
	movq	-40(%rbp), %rsi
	movq	%rsi, -104(%rbp)
	movabsq	$-3689348814741910323, %rdx
	movq	-104(%rbp), %rax
	mulq	%rdx
	movq	%rdx, %rax
	shrq	$3, %rax
	leaq	10832(%rax), %rdx
	movq	prof+8(,%rdx,8), %rdx
	addq	$1, %rdx
	addq	$10832, %rax
	movq	%rdx, prof+8(,%rax,8)
	cmpq	$99, -40(%rbp)
	jbe	.L687
	movq	$99, -40(%rbp)
.L687:
	movq	-40(%rbp), %rax
	addq	$10732, %rax
	movq	prof+8(,%rax,8), %rax
	leaq	1(%rax), %rdx
	movq	-40(%rbp), %rax
	addq	$10732, %rax
	movq	%rdx, prof+8(,%rax,8)
.L685:
	movl	$0, -48(%rbp)
	movl	$0, %eax
	call	backtrace2
	movq	%rax, -64(%rbp)
	movl	$0, -44(%rbp)
	jmp	.L688
.L690:
	movl	-44(%rbp), %eax
	cltq
	addq	$1400, %rax
	movq	call_sites(,%rax,8), %rax
	cmpq	-64(%rbp), %rax
	jne	.L689
	movl	$1, -48(%rbp)
.L689:
	addl	$1, -44(%rbp)
.L688:
	movl	-44(%rbp), %eax
	movslq	%eax, %rdx
	movq	prof+88552(%rip), %rax
	cmpq	%rax, %rdx
	jb	.L690
	cmpl	$0, -48(%rbp)
	jne	.L691
	movq	prof+88552(%rip), %rax
	cmpq	$99, %rax
	ja	.L691
	movq	prof+88552(%rip), %rax
	leaq	1400(%rax), %rdx
	movq	-64(%rbp), %rax
	movq	%rax, call_sites(,%rdx,8)
	movq	prof+88552(%rip), %rax
	addq	$1, %rax
	movq	%rax, prof+88552(%rip)
.L691:
	movq	-72(%rbp), %rax
	addq	$104, %rsp
	popq	%rbx
	leave
	.cfi_def_cfa 7, 8
	ret
	.cfi_endproc
.LFE38:
	.size	memset, .-memset
.globl bzero
	.type	bzero, @function
bzero:
.LFB39:
	.cfi_startproc
	pushq	%rbp
	.cfi_def_cfa_offset 16
	movq	%rsp, %rbp
	.cfi_offset 6, -16
	.cfi_def_cfa_register 6
	subq	$16, %rsp
	movq	%rdi, -8(%rbp)
	movq	%rsi, -16(%rbp)
	movq	-16(%rbp), %rdx
	movq	-8(%rbp), %rax
	movl	$0, %esi
	movq	%rax, %rdi
	call	memset
	leave
	.cfi_def_cfa 7, 8
	ret
	.cfi_endproc
.LFE39:
	.size	bzero, .-bzero
.globl strverscmp
	.type	strverscmp, @function
strverscmp:
.LFB40:
	.cfi_startproc
	pushq	%rbp
	.cfi_def_cfa_offset 16
	movq	%rsp, %rbp
	.cfi_offset 6, -16
	.cfi_def_cfa_register 6
	pushq	%r12
	pushq	%rbx
	subq	$288, %rsp
	movq	%rdi, -280(%rbp)
	movq	%rsi, -288(%rbp)
	movq	-280(%rbp), %rax
	movq	%rax, -192(%rbp)
	movq	-288(%rbp), %rax
	movq	%rax, -200(%rbp)
	.cfi_offset 3, -32
	.cfi_offset 12, -24
	call	rdtsc
	movq	%rax, prof+94408(%rip)
	movq	-280(%rbp), %rax
	movq	%rax, -24(%rbp)
	movq	-288(%rbp), %rax
	movq	%rax, -32(%rbp)
	movq	-24(%rbp), %rax
	cmpq	-32(%rbp), %rax
	jne	.L694
	movq	-24(%rbp), %rdx
	movq	-280(%rbp), %rax
	movq	%rdx, %rcx
	subq	%rax, %rcx
	movq	%rcx, %rax
	movq	%rax, -208(%rbp)
	movq	prof+94408(%rip), %rdx
	movq	prof+94416(%rip), %rax
	cmpq	%rax, %rdx
	je	.L695
	movq	prof+94408(%rip), %rdx
	movq	prof+94416(%rip), %rax
	subq	%rax, %rdx
	movabsq	$-2147483649, %rax
	cmpq	%rax, %rdx
	ja	.L695
	movq	prof+94408(%rip), %rdx
	movq	prof+94416(%rip), %rax
	movq	%rdx, %rbx
	subq	%rax, %rbx
	movq	%rbx, %rax
	bsrq	%rax, %rax
	xorq	$63, %rax
	movl	$63, %edx
	movl	%edx, %esi
	subl	%eax, %esi
	movl	%esi, %eax
	movslq	%eax, %rdx
	addq	$11670, %rdx
	movq	prof+8(,%rdx,8), %rdx
	addq	$1, %rdx
	cltq
	addq	$11670, %rax
	movq	%rdx, prof+8(,%rax,8)
.L695:
	call	rdtsc
	movq	%rax, prof+94416(%rip)
	movq	b_strverscmp(%rip), %rax
	andl	$2, %eax
	testq	%rax, %rax
	je	.L696
	movq	-192(%rbp), %rdx
	movq	-200(%rbp), %rax
	subq	%rax, %rdx
	movq	%rdx, %rax
	sarq	$63, %rax
	shrq	$58, %rax
	addq	%rax, %rdx
	andl	$63, %edx
	movq	%rdx, %rcx
	subq	%rax, %rcx
	movq	%rcx, %rax
	jmp	.L697
.L696:
	movq	-192(%rbp), %rax
	andl	$63, %eax
.L697:
	leaq	11734(%rax), %rdx
	movq	prof+8(,%rdx,8), %rdx
	addq	$1, %rdx
	addq	$11734, %rax
	movq	%rdx, prof+8(,%rax,8)
	movq	prof+94392(%rip), %rax
	addq	$1, %rax
	movq	%rax, prof+94392(%rip)
	cmpq	$16, -208(%rbp)
	ja	.L698
	movq	prof+88560(%rip), %rax
	addq	$1, %rax
	movq	%rax, prof+88560(%rip)
.L698:
	movq	b_strverscmp(%rip), %rax
	andl	$8, %eax
	testq	%rax, %rax
	jne	.L699
	movq	-192(%rbp), %rax
	addq	-208(%rbp), %rax
	movq	%rax, %rdx
	shrq	$4, %rdx
	movq	-192(%rbp), %rax
	shrq	$4, %rax
	movq	%rdx, %rbx
	subq	%rax, %rbx
	movq	%rbx, %rax
	addq	$1, %rax
	jmp	.L700
.L699:
	movq	-208(%rbp), %rax
.L700:
	movq	%rax, -40(%rbp)
	movq	prof+94416(%rip), %rdx
	movq	prof+94408(%rip), %rax
	movq	%rdx, %rsi
	subq	%rax, %rsi
	movq	%rsi, %rax
	cmpq	$1999999, %rax
	ja	.L701
	cmpq	$999, -40(%rbp)
	jbe	.L702
	movq	$999, -40(%rbp)
.L702:
	movq	-40(%rbp), %rax
	movq	%rax, -296(%rbp)
	movabsq	$-3689348814741910323, %rdx
	movq	-296(%rbp), %rax
	mulq	%rdx
	movq	%rdx, %rax
	shrq	$3, %rax
	leaq	11170(%rax), %rdx
	movq	prof+8(,%rdx,8), %rdx
	addq	$1, %rdx
	addq	$11170, %rax
	movq	%rdx, prof+8(,%rax,8)
	movq	-40(%rbp), %rcx
	movq	%rcx, -296(%rbp)
	movabsq	$-3689348814741910323, %rdx
	movq	-296(%rbp), %rax
	mulq	%rdx
	movq	%rdx, %rax
	shrq	$3, %rax
	leaq	11370(%rax), %rdx
	movq	prof+8(,%rdx,8), %rdx
	movq	prof+94416(%rip), %rbx
	movq	prof+94408(%rip), %rcx
	movq	%rbx, %rsi
	subq	%rcx, %rsi
	movq	%rsi, %rcx
	addq	%rcx, %rdx
	addq	$11370, %rax
	movq	%rdx, prof+8(,%rax,8)
	cmpq	$99, -40(%rbp)
	jbe	.L703
	movq	$99, -40(%rbp)
.L703:
	movq	-40(%rbp), %rax
	addq	$11070, %rax
	movq	prof+8(,%rax,8), %rax
	leaq	1(%rax), %rdx
	movq	-40(%rbp), %rax
	addq	$11070, %rax
	movq	%rdx, prof+8(,%rax,8)
	movq	-40(%rbp), %rax
	addq	$11270, %rax
	movq	prof+8(,%rax,8), %rax
	movq	prof+94416(%rip), %rcx
	movq	prof+94408(%rip), %rdx
	movq	%rcx, %rbx
	subq	%rdx, %rbx
	movq	%rbx, %rdx
	leaq	(%rax,%rdx), %rdx
	movq	-40(%rbp), %rax
	addq	$11270, %rax
	movq	%rdx, prof+8(,%rax,8)
.L701:
	movq	b_strverscmp(%rip), %rax
	andl	$1, %eax
	testb	%al, %al
	je	.L704
	movq	-200(%rbp), %rax
	movq	%rax, %rdi
	call	strlen
	movq	%rax, -48(%rbp)
	cmpq	$999, -48(%rbp)
	jbe	.L705
	movq	$999, -48(%rbp)
.L705:
	movq	-48(%rbp), %rsi
	movq	%rsi, -296(%rbp)
	movabsq	$-3689348814741910323, %rdx
	movq	-296(%rbp), %rax
	mulq	%rdx
	movq	%rdx, %rax
	shrq	$3, %rax
	leaq	11570(%rax), %rdx
	movq	prof+8(,%rdx,8), %rdx
	addq	$1, %rdx
	addq	$11570, %rax
	movq	%rdx, prof+8(,%rax,8)
	cmpq	$99, -48(%rbp)
	jbe	.L706
	movq	$99, -48(%rbp)
.L706:
	movq	-48(%rbp), %rax
	addq	$11470, %rax
	movq	prof+8(,%rax,8), %rax
	leaq	1(%rax), %rdx
	movq	-48(%rbp), %rax
	addq	$11470, %rax
	movq	%rdx, prof+8(,%rax,8)
.L704:
	movl	$0, -56(%rbp)
	movl	$0, %eax
	call	backtrace2
	movq	%rax, -216(%rbp)
	movl	$0, -52(%rbp)
	jmp	.L707
.L709:
	movl	-52(%rbp), %eax
	cltq
	addq	$1500, %rax
	movq	call_sites(,%rax,8), %rax
	cmpq	-216(%rbp), %rax
	jne	.L708
	movl	$1, -56(%rbp)
.L708:
	addl	$1, -52(%rbp)
.L707:
	movl	-52(%rbp), %eax
	movslq	%eax, %rdx
	movq	prof+94456(%rip), %rax
	cmpq	%rax, %rdx
	jb	.L709
	cmpl	$0, -56(%rbp)
	jne	.L710
	movq	prof+94456(%rip), %rax
	cmpq	$99, %rax
	ja	.L710
	movq	prof+94456(%rip), %rax
	leaq	1500(%rax), %rdx
	movq	-216(%rbp), %rax
	movq	%rax, call_sites(,%rdx,8)
	movq	prof+94456(%rip), %rax
	addq	$1, %rax
	movq	%rax, prof+94456(%rip)
.L710:
	movl	$0, %eax
	jmp	.L711
.L694:
	movq	-24(%rbp), %rax
	movzbl	(%rax), %eax
	movb	%al, -57(%rbp)
	addq	$1, -24(%rbp)
	movq	-32(%rbp), %rax
	movzbl	(%rax), %eax
	movb	%al, -58(%rbp)
	addq	$1, -32(%rbp)
	cmpb	$48, -57(%rbp)
	sete	%al
	movzbl	%al, %ebx
	call	__ctype_b_loc
	movq	(%rax), %rax
	movzbl	-57(%rbp), %edx
	addq	%rdx, %rdx
	addq	%rdx, %rax
	movzwl	(%rax), %eax
	movzwl	%ax, %eax
	andl	$2048, %eax
	testl	%eax, %eax
	setne	%al
	movzbl	%al, %eax
	leal	(%rbx,%rax), %eax
	movl	%eax, -64(%rbp)
	jmp	.L712
.L730:
	cmpb	$0, -57(%rbp)
	jne	.L713
	movq	-24(%rbp), %rdx
	movq	-280(%rbp), %rax
	movq	%rdx, %rcx
	subq	%rax, %rcx
	movq	%rcx, %rax
	movq	%rax, -208(%rbp)
	movq	prof+94408(%rip), %rdx
	movq	prof+94416(%rip), %rax
	cmpq	%rax, %rdx
	je	.L714
	movq	prof+94408(%rip), %rdx
	movq	prof+94416(%rip), %rax
	subq	%rax, %rdx
	movabsq	$-2147483649, %rax
	cmpq	%rax, %rdx
	ja	.L714
	movq	prof+94408(%rip), %rdx
	movq	prof+94416(%rip), %rax
	movq	%rdx, %rbx
	subq	%rax, %rbx
	movq	%rbx, %rax
	bsrq	%rax, %rax
	xorq	$63, %rax
	movl	$63, %edx
	movl	%edx, %esi
	subl	%eax, %esi
	movl	%esi, %eax
	movslq	%eax, %rdx
	addq	$11670, %rdx
	movq	prof+8(,%rdx,8), %rdx
	addq	$1, %rdx
	cltq
	addq	$11670, %rax
	movq	%rdx, prof+8(,%rax,8)
.L714:
	call	rdtsc
	movq	%rax, prof+94416(%rip)
	movq	b_strverscmp(%rip), %rax
	andl	$2, %eax
	testq	%rax, %rax
	je	.L715
	movq	-192(%rbp), %rdx
	movq	-200(%rbp), %rax
	subq	%rax, %rdx
	movq	%rdx, %rax
	sarq	$63, %rax
	shrq	$58, %rax
	addq	%rax, %rdx
	andl	$63, %edx
	movq	%rdx, %rcx
	subq	%rax, %rcx
	movq	%rcx, %rax
	jmp	.L716
.L715:
	movq	-192(%rbp), %rax
	andl	$63, %eax
.L716:
	leaq	11734(%rax), %rdx
	movq	prof+8(,%rdx,8), %rdx
	addq	$1, %rdx
	addq	$11734, %rax
	movq	%rdx, prof+8(,%rax,8)
	movq	prof+94392(%rip), %rax
	addq	$1, %rax
	movq	%rax, prof+94392(%rip)
	cmpq	$16, -208(%rbp)
	ja	.L717
	movq	prof+88560(%rip), %rax
	addq	$1, %rax
	movq	%rax, prof+88560(%rip)
.L717:
	movq	b_strverscmp(%rip), %rax
	andl	$8, %eax
	testq	%rax, %rax
	jne	.L718
	movq	-192(%rbp), %rax
	addq	-208(%rbp), %rax
	movq	%rax, %rdx
	shrq	$4, %rdx
	movq	-192(%rbp), %rax
	shrq	$4, %rax
	movq	%rdx, %rbx
	subq	%rax, %rbx
	movq	%rbx, %rax
	addq	$1, %rax
	jmp	.L719
.L718:
	movq	-208(%rbp), %rax
.L719:
	movq	%rax, -72(%rbp)
	movq	prof+94416(%rip), %rdx
	movq	prof+94408(%rip), %rax
	movq	%rdx, %rsi
	subq	%rax, %rsi
	movq	%rsi, %rax
	cmpq	$1999999, %rax
	ja	.L720
	cmpq	$999, -72(%rbp)
	jbe	.L721
	movq	$999, -72(%rbp)
.L721:
	movq	-72(%rbp), %rax
	movq	%rax, -296(%rbp)
	movabsq	$-3689348814741910323, %rdx
	movq	-296(%rbp), %rax
	mulq	%rdx
	movq	%rdx, %rax
	shrq	$3, %rax
	leaq	11170(%rax), %rdx
	movq	prof+8(,%rdx,8), %rdx
	addq	$1, %rdx
	addq	$11170, %rax
	movq	%rdx, prof+8(,%rax,8)
	movq	-72(%rbp), %rcx
	movq	%rcx, -296(%rbp)
	movabsq	$-3689348814741910323, %rdx
	movq	-296(%rbp), %rax
	mulq	%rdx
	movq	%rdx, %rax
	shrq	$3, %rax
	leaq	11370(%rax), %rdx
	movq	prof+8(,%rdx,8), %rdx
	movq	prof+94416(%rip), %rbx
	movq	prof+94408(%rip), %rcx
	movq	%rbx, %rsi
	subq	%rcx, %rsi
	movq	%rsi, %rcx
	addq	%rcx, %rdx
	addq	$11370, %rax
	movq	%rdx, prof+8(,%rax,8)
	cmpq	$99, -72(%rbp)
	jbe	.L722
	movq	$99, -72(%rbp)
.L722:
	movq	-72(%rbp), %rax
	addq	$11070, %rax
	movq	prof+8(,%rax,8), %rax
	leaq	1(%rax), %rdx
	movq	-72(%rbp), %rax
	addq	$11070, %rax
	movq	%rdx, prof+8(,%rax,8)
	movq	-72(%rbp), %rax
	addq	$11270, %rax
	movq	prof+8(,%rax,8), %rax
	movq	prof+94416(%rip), %rcx
	movq	prof+94408(%rip), %rdx
	movq	%rcx, %rbx
	subq	%rdx, %rbx
	movq	%rbx, %rdx
	leaq	(%rax,%rdx), %rdx
	movq	-72(%rbp), %rax
	addq	$11270, %rax
	movq	%rdx, prof+8(,%rax,8)
.L720:
	movq	b_strverscmp(%rip), %rax
	andl	$1, %eax
	testb	%al, %al
	je	.L723
	movq	-200(%rbp), %rax
	movq	%rax, %rdi
	call	strlen
	movq	%rax, -80(%rbp)
	cmpq	$999, -80(%rbp)
	jbe	.L724
	movq	$999, -80(%rbp)
.L724:
	movq	-80(%rbp), %rsi
	movq	%rsi, -296(%rbp)
	movabsq	$-3689348814741910323, %rdx
	movq	-296(%rbp), %rax
	mulq	%rdx
	movq	%rdx, %rax
	shrq	$3, %rax
	leaq	11570(%rax), %rdx
	movq	prof+8(,%rdx,8), %rdx
	addq	$1, %rdx
	addq	$11570, %rax
	movq	%rdx, prof+8(,%rax,8)
	cmpq	$99, -80(%rbp)
	jbe	.L725
	movq	$99, -80(%rbp)
.L725:
	movq	-80(%rbp), %rax
	addq	$11470, %rax
	movq	prof+8(,%rax,8), %rax
	leaq	1(%rax), %rdx
	movq	-80(%rbp), %rax
	addq	$11470, %rax
	movq	%rdx, prof+8(,%rax,8)
.L723:
	movl	$0, -88(%rbp)
	movl	$0, %eax
	call	backtrace2
	movq	%rax, -232(%rbp)
	movl	$0, -84(%rbp)
	jmp	.L726
.L728:
	movl	-84(%rbp), %eax
	cltq
	addq	$1500, %rax
	movq	call_sites(,%rax,8), %rax
	cmpq	-232(%rbp), %rax
	jne	.L727
	movl	$1, -88(%rbp)
.L727:
	addl	$1, -84(%rbp)
.L726:
	movl	-84(%rbp), %eax
	movslq	%eax, %rdx
	movq	prof+94456(%rip), %rax
	cmpq	%rax, %rdx
	jb	.L728
	cmpl	$0, -88(%rbp)
	jne	.L729
	movq	prof+94456(%rip), %rax
	cmpq	$99, %rax
	ja	.L729
	movq	prof+94456(%rip), %rax
	leaq	1500(%rax), %rdx
	movq	-232(%rbp), %rax
	movq	%rax, call_sites(,%rdx,8)
	movq	prof+94456(%rip), %rax
	addq	$1, %rax
	movq	%rax, prof+94456(%rip)
.L729:
	movl	-220(%rbp), %eax
	jmp	.L711
.L713:
	movl	-64(%rbp), %eax
	cltq
	movzbl	next_state.4863(%rax), %eax
	movzbl	%al, %eax
	movl	%eax, -64(%rbp)
	movq	-24(%rbp), %rax
	movzbl	(%rax), %eax
	movb	%al, -57(%rbp)
	addq	$1, -24(%rbp)
	movq	-32(%rbp), %rax
	movzbl	(%rax), %eax
	movb	%al, -58(%rbp)
	addq	$1, -32(%rbp)
	cmpb	$48, -57(%rbp)
	sete	%al
	movzbl	%al, %ebx
	call	__ctype_b_loc
	movq	(%rax), %rax
	movzbl	-57(%rbp), %edx
	addq	%rdx, %rdx
	addq	%rdx, %rax
	movzwl	(%rax), %eax
	movzwl	%ax, %eax
	andl	$2048, %eax
	testl	%eax, %eax
	setne	%al
	movzbl	%al, %eax
	leal	(%rbx,%rax), %eax
	addl	%eax, -64(%rbp)
.L712:
	movzbl	-57(%rbp), %edx
	movzbl	-58(%rbp), %eax
	movl	%edx, %ecx
	subl	%eax, %ecx
	movl	%ecx, %eax
	movl	%eax, -220(%rbp)
	cmpl	$0, -220(%rbp)
	je	.L730
	movl	-64(%rbp), %edx
	movl	%edx, %eax
	addl	%eax, %eax
	leal	(%rax,%rdx), %r12d
	cmpb	$48, -58(%rbp)
	sete	%al
	movzbl	%al, %ebx
	call	__ctype_b_loc
	movq	(%rax), %rax
	movzbl	-58(%rbp), %edx
	addq	%rdx, %rdx
	addq	%rdx, %rax
	movzwl	(%rax), %eax
	movzwl	%ax, %eax
	andl	$2048, %eax
	testl	%eax, %eax
	setne	%al
	movzbl	%al, %eax
	leal	(%rbx,%rax), %eax
	leal	(%r12,%rax), %eax
	cltq
	movzbl	result_type.4864(%rax), %eax
	movsbl	%al, %eax
	movl	%eax, -64(%rbp)
	movl	-64(%rbp), %eax
	cmpl	$2, %eax
	je	.L732
	cmpl	$3, %eax
	je	.L803
	jmp	.L802
.L732:
	movq	-24(%rbp), %rdx
	movq	-280(%rbp), %rax
	movq	%rdx, %rbx
	subq	%rax, %rbx
	movq	%rbx, %rax
	movq	%rax, -208(%rbp)
	movq	prof+94408(%rip), %rdx
	movq	prof+94416(%rip), %rax
	cmpq	%rax, %rdx
	je	.L734
	movq	prof+94408(%rip), %rdx
	movq	prof+94416(%rip), %rax
	subq	%rax, %rdx
	movabsq	$-2147483649, %rax
	cmpq	%rax, %rdx
	ja	.L734
	movq	prof+94408(%rip), %rdx
	movq	prof+94416(%rip), %rax
	movq	%rdx, %rsi
	subq	%rax, %rsi
	movq	%rsi, %rax
	bsrq	%rax, %rax
	xorq	$63, %rax
	movl	$63, %edx
	movl	%edx, %ecx
	subl	%eax, %ecx
	movl	%ecx, %eax
	movslq	%eax, %rdx
	addq	$11670, %rdx
	movq	prof+8(,%rdx,8), %rdx
	addq	$1, %rdx
	cltq
	addq	$11670, %rax
	movq	%rdx, prof+8(,%rax,8)
.L734:
	call	rdtsc
	movq	%rax, prof+94416(%rip)
	movq	b_strverscmp(%rip), %rax
	andl	$2, %eax
	testq	%rax, %rax
	je	.L735
	movq	-192(%rbp), %rdx
	movq	-200(%rbp), %rax
	subq	%rax, %rdx
	movq	%rdx, %rax
	sarq	$63, %rax
	shrq	$58, %rax
	addq	%rax, %rdx
	andl	$63, %edx
	movq	%rdx, %rbx
	subq	%rax, %rbx
	movq	%rbx, %rax
	jmp	.L736
.L735:
	movq	-192(%rbp), %rax
	andl	$63, %eax
.L736:
	leaq	11734(%rax), %rdx
	movq	prof+8(,%rdx,8), %rdx
	addq	$1, %rdx
	addq	$11734, %rax
	movq	%rdx, prof+8(,%rax,8)
	movq	prof+94392(%rip), %rax
	addq	$1, %rax
	movq	%rax, prof+94392(%rip)
	cmpq	$16, -208(%rbp)
	ja	.L737
	movq	prof+88560(%rip), %rax
	addq	$1, %rax
	movq	%rax, prof+88560(%rip)
.L737:
	movq	b_strverscmp(%rip), %rax
	andl	$8, %eax
	testq	%rax, %rax
	jne	.L738
	movq	-192(%rbp), %rax
	addq	-208(%rbp), %rax
	movq	%rax, %rdx
	shrq	$4, %rdx
	movq	-192(%rbp), %rax
	shrq	$4, %rax
	movq	%rdx, %rsi
	subq	%rax, %rsi
	movq	%rsi, %rax
	addq	$1, %rax
	jmp	.L739
.L738:
	movq	-208(%rbp), %rax
.L739:
	movq	%rax, -96(%rbp)
	movq	prof+94416(%rip), %rdx
	movq	prof+94408(%rip), %rax
	movq	%rdx, %rcx
	subq	%rax, %rcx
	movq	%rcx, %rax
	cmpq	$1999999, %rax
	ja	.L740
	cmpq	$999, -96(%rbp)
	jbe	.L741
	movq	$999, -96(%rbp)
.L741:
	movq	-96(%rbp), %rbx
	movq	%rbx, -296(%rbp)
	movabsq	$-3689348814741910323, %rdx
	movq	-296(%rbp), %rax
	mulq	%rdx
	movq	%rdx, %rax
	shrq	$3, %rax
	leaq	11170(%rax), %rdx
	movq	prof+8(,%rdx,8), %rdx
	addq	$1, %rdx
	addq	$11170, %rax
	movq	%rdx, prof+8(,%rax,8)
	movq	-96(%rbp), %rcx
	movq	%rcx, -296(%rbp)
	movabsq	$-3689348814741910323, %rdx
	movq	-296(%rbp), %rax
	mulq	%rdx
	movq	%rdx, %rax
	shrq	$3, %rax
	leaq	11370(%rax), %rdx
	movq	prof+8(,%rdx,8), %rdx
	movq	prof+94416(%rip), %rbx
	movq	prof+94408(%rip), %rcx
	movq	%rbx, %rsi
	subq	%rcx, %rsi
	movq	%rsi, %rcx
	addq	%rcx, %rdx
	addq	$11370, %rax
	movq	%rdx, prof+8(,%rax,8)
	cmpq	$99, -96(%rbp)
	jbe	.L742
	movq	$99, -96(%rbp)
.L742:
	movq	-96(%rbp), %rax
	addq	$11070, %rax
	movq	prof+8(,%rax,8), %rax
	leaq	1(%rax), %rdx
	movq	-96(%rbp), %rax
	addq	$11070, %rax
	movq	%rdx, prof+8(,%rax,8)
	movq	-96(%rbp), %rax
	addq	$11270, %rax
	movq	prof+8(,%rax,8), %rax
	movq	prof+94416(%rip), %rcx
	movq	prof+94408(%rip), %rdx
	movq	%rcx, %rbx
	subq	%rdx, %rbx
	movq	%rbx, %rdx
	leaq	(%rax,%rdx), %rdx
	movq	-96(%rbp), %rax
	addq	$11270, %rax
	movq	%rdx, prof+8(,%rax,8)
.L740:
	movq	b_strverscmp(%rip), %rax
	andl	$1, %eax
	testb	%al, %al
	je	.L743
	movq	-200(%rbp), %rax
	movq	%rax, %rdi
	call	strlen
	movq	%rax, -104(%rbp)
	cmpq	$999, -104(%rbp)
	jbe	.L744
	movq	$999, -104(%rbp)
.L744:
	movq	-104(%rbp), %rsi
	movq	%rsi, -296(%rbp)
	movabsq	$-3689348814741910323, %rdx
	movq	-296(%rbp), %rax
	mulq	%rdx
	movq	%rdx, %rax
	shrq	$3, %rax
	leaq	11570(%rax), %rdx
	movq	prof+8(,%rdx,8), %rdx
	addq	$1, %rdx
	addq	$11570, %rax
	movq	%rdx, prof+8(,%rax,8)
	cmpq	$99, -104(%rbp)
	jbe	.L745
	movq	$99, -104(%rbp)
.L745:
	movq	-104(%rbp), %rax
	addq	$11470, %rax
	movq	prof+8(,%rax,8), %rax
	leaq	1(%rax), %rdx
	movq	-104(%rbp), %rax
	addq	$11470, %rax
	movq	%rdx, prof+8(,%rax,8)
.L743:
	movl	$0, -112(%rbp)
	movl	$0, %eax
	call	backtrace2
	movq	%rax, -240(%rbp)
	movl	$0, -108(%rbp)
	jmp	.L746
.L748:
	movl	-108(%rbp), %eax
	cltq
	addq	$1500, %rax
	movq	call_sites(,%rax,8), %rax
	cmpq	-240(%rbp), %rax
	jne	.L747
	movl	$1, -112(%rbp)
.L747:
	addl	$1, -108(%rbp)
.L746:
	movl	-108(%rbp), %eax
	movslq	%eax, %rdx
	movq	prof+94456(%rip), %rax
	cmpq	%rax, %rdx
	jb	.L748
	cmpl	$0, -112(%rbp)
	jne	.L749
	movq	prof+94456(%rip), %rax
	cmpq	$99, %rax
	ja	.L749
	movq	prof+94456(%rip), %rax
	leaq	1500(%rax), %rdx
	movq	-240(%rbp), %rax
	movq	%rax, call_sites(,%rdx,8)
	movq	prof+94456(%rip), %rax
	addq	$1, %rax
	movq	%rax, prof+94456(%rip)
.L749:
	movl	-220(%rbp), %eax
	jmp	.L711
.L767:
	call	__ctype_b_loc
	movq	(%rax), %rdx
	movq	-32(%rbp), %rax
	movzbl	(%rax), %eax
	movzbl	%al, %eax
	addq	%rax, %rax
	leaq	(%rdx,%rax), %rax
	movzwl	(%rax), %eax
	movzwl	%ax, %eax
	andl	$2048, %eax
	testl	%eax, %eax
	sete	%al
	addq	$1, -32(%rbp)
	testb	%al, %al
	je	.L750
	movq	-24(%rbp), %rdx
	movq	-280(%rbp), %rax
	movq	%rdx, %rcx
	subq	%rax, %rcx
	movq	%rcx, %rax
	movq	%rax, -208(%rbp)
	movq	prof+94408(%rip), %rdx
	movq	prof+94416(%rip), %rax
	cmpq	%rax, %rdx
	je	.L751
	movq	prof+94408(%rip), %rdx
	movq	prof+94416(%rip), %rax
	subq	%rax, %rdx
	movabsq	$-2147483649, %rax
	cmpq	%rax, %rdx
	ja	.L751
	movq	prof+94408(%rip), %rdx
	movq	prof+94416(%rip), %rax
	movq	%rdx, %rbx
	subq	%rax, %rbx
	movq	%rbx, %rax
	bsrq	%rax, %rax
	xorq	$63, %rax
	movl	$63, %edx
	movl	%edx, %esi
	subl	%eax, %esi
	movl	%esi, %eax
	movslq	%eax, %rdx
	addq	$11670, %rdx
	movq	prof+8(,%rdx,8), %rdx
	addq	$1, %rdx
	cltq
	addq	$11670, %rax
	movq	%rdx, prof+8(,%rax,8)
.L751:
	call	rdtsc
	movq	%rax, prof+94416(%rip)
	movq	b_strverscmp(%rip), %rax
	andl	$2, %eax
	testq	%rax, %rax
	je	.L752
	movq	-192(%rbp), %rdx
	movq	-200(%rbp), %rax
	subq	%rax, %rdx
	movq	%rdx, %rax
	sarq	$63, %rax
	shrq	$58, %rax
	addq	%rax, %rdx
	andl	$63, %edx
	movq	%rdx, %rcx
	subq	%rax, %rcx
	movq	%rcx, %rax
	jmp	.L753
.L752:
	movq	-192(%rbp), %rax
	andl	$63, %eax
.L753:
	leaq	11734(%rax), %rdx
	movq	prof+8(,%rdx,8), %rdx
	addq	$1, %rdx
	addq	$11734, %rax
	movq	%rdx, prof+8(,%rax,8)
	movq	prof+94392(%rip), %rax
	addq	$1, %rax
	movq	%rax, prof+94392(%rip)
	cmpq	$16, -208(%rbp)
	ja	.L754
	movq	prof+88560(%rip), %rax
	addq	$1, %rax
	movq	%rax, prof+88560(%rip)
.L754:
	movq	b_strverscmp(%rip), %rax
	andl	$8, %eax
	testq	%rax, %rax
	jne	.L755
	movq	-192(%rbp), %rax
	addq	-208(%rbp), %rax
	movq	%rax, %rdx
	shrq	$4, %rdx
	movq	-192(%rbp), %rax
	shrq	$4, %rax
	movq	%rdx, %rbx
	subq	%rax, %rbx
	movq	%rbx, %rax
	addq	$1, %rax
	jmp	.L756
.L755:
	movq	-208(%rbp), %rax
.L756:
	movq	%rax, -120(%rbp)
	movq	prof+94416(%rip), %rdx
	movq	prof+94408(%rip), %rax
	movq	%rdx, %rsi
	subq	%rax, %rsi
	movq	%rsi, %rax
	cmpq	$1999999, %rax
	ja	.L757
	cmpq	$999, -120(%rbp)
	jbe	.L758
	movq	$999, -120(%rbp)
.L758:
	movq	-120(%rbp), %rax
	movq	%rax, -296(%rbp)
	movabsq	$-3689348814741910323, %rdx
	movq	-296(%rbp), %rax
	mulq	%rdx
	movq	%rdx, %rax
	shrq	$3, %rax
	leaq	11170(%rax), %rdx
	movq	prof+8(,%rdx,8), %rdx
	addq	$1, %rdx
	addq	$11170, %rax
	movq	%rdx, prof+8(,%rax,8)
	movq	-120(%rbp), %rcx
	movq	%rcx, -296(%rbp)
	movabsq	$-3689348814741910323, %rdx
	movq	-296(%rbp), %rax
	mulq	%rdx
	movq	%rdx, %rax
	shrq	$3, %rax
	leaq	11370(%rax), %rdx
	movq	prof+8(,%rdx,8), %rdx
	movq	prof+94416(%rip), %rbx
	movq	prof+94408(%rip), %rcx
	movq	%rbx, %rsi
	subq	%rcx, %rsi
	movq	%rsi, %rcx
	addq	%rcx, %rdx
	addq	$11370, %rax
	movq	%rdx, prof+8(,%rax,8)
	cmpq	$99, -120(%rbp)
	jbe	.L759
	movq	$99, -120(%rbp)
.L759:
	movq	-120(%rbp), %rax
	addq	$11070, %rax
	movq	prof+8(,%rax,8), %rax
	leaq	1(%rax), %rdx
	movq	-120(%rbp), %rax
	addq	$11070, %rax
	movq	%rdx, prof+8(,%rax,8)
	movq	-120(%rbp), %rax
	addq	$11270, %rax
	movq	prof+8(,%rax,8), %rax
	movq	prof+94416(%rip), %rcx
	movq	prof+94408(%rip), %rdx
	movq	%rcx, %rbx
	subq	%rdx, %rbx
	movq	%rbx, %rdx
	leaq	(%rax,%rdx), %rdx
	movq	-120(%rbp), %rax
	addq	$11270, %rax
	movq	%rdx, prof+8(,%rax,8)
.L757:
	movq	b_strverscmp(%rip), %rax
	andl	$1, %eax
	testb	%al, %al
	je	.L760
	movq	-200(%rbp), %rax
	movq	%rax, %rdi
	call	strlen
	movq	%rax, -128(%rbp)
	cmpq	$999, -128(%rbp)
	jbe	.L761
	movq	$999, -128(%rbp)
.L761:
	movq	-128(%rbp), %rsi
	movq	%rsi, -296(%rbp)
	movabsq	$-3689348814741910323, %rdx
	movq	-296(%rbp), %rax
	mulq	%rdx
	movq	%rdx, %rax
	shrq	$3, %rax
	leaq	11570(%rax), %rdx
	movq	prof+8(,%rdx,8), %rdx
	addq	$1, %rdx
	addq	$11570, %rax
	movq	%rdx, prof+8(,%rax,8)
	cmpq	$99, -128(%rbp)
	jbe	.L762
	movq	$99, -128(%rbp)
.L762:
	movq	-128(%rbp), %rax
	addq	$11470, %rax
	movq	prof+8(,%rax,8), %rax
	leaq	1(%rax), %rdx
	movq	-128(%rbp), %rax
	addq	$11470, %rax
	movq	%rdx, prof+8(,%rax,8)
.L760:
	movl	$0, -136(%rbp)
	movl	$0, %eax
	call	backtrace2
	movq	%rax, -248(%rbp)
	movl	$0, -132(%rbp)
	jmp	.L763
.L765:
	movl	-132(%rbp), %eax
	cltq
	addq	$1500, %rax
	movq	call_sites(,%rax,8), %rax
	cmpq	-248(%rbp), %rax
	jne	.L764
	movl	$1, -136(%rbp)
.L764:
	addl	$1, -132(%rbp)
.L763:
	movl	-132(%rbp), %eax
	movslq	%eax, %rdx
	movq	prof+94456(%rip), %rax
	cmpq	%rax, %rdx
	jb	.L765
	cmpl	$0, -136(%rbp)
	jne	.L766
	movq	prof+94456(%rip), %rax
	cmpq	$99, %rax
	ja	.L766
	movq	prof+94456(%rip), %rax
	leaq	1500(%rax), %rdx
	movq	-248(%rbp), %rax
	movq	%rax, call_sites(,%rdx,8)
	movq	prof+94456(%rip), %rax
	addq	$1, %rax
	movq	%rax, prof+94456(%rip)
.L766:
	movl	$1, %eax
	jmp	.L711
.L803:
	nop
.L750:
	call	__ctype_b_loc
	movq	(%rax), %rdx
	movq	-24(%rbp), %rax
	movzbl	(%rax), %eax
	movzbl	%al, %eax
	addq	%rax, %rax
	leaq	(%rdx,%rax), %rax
	movzwl	(%rax), %eax
	movzwl	%ax, %eax
	andl	$2048, %eax
	testl	%eax, %eax
	setne	%al
	addq	$1, -24(%rbp)
	testb	%al, %al
	jne	.L767
	movq	-24(%rbp), %rdx
	movq	-280(%rbp), %rax
	movq	%rdx, %rcx
	subq	%rax, %rcx
	movq	%rcx, %rax
	movq	%rax, -208(%rbp)
	movq	prof+94408(%rip), %rdx
	movq	prof+94416(%rip), %rax
	cmpq	%rax, %rdx
	je	.L768
	movq	prof+94408(%rip), %rdx
	movq	prof+94416(%rip), %rax
	subq	%rax, %rdx
	movabsq	$-2147483649, %rax
	cmpq	%rax, %rdx
	ja	.L768
	movq	prof+94408(%rip), %rdx
	movq	prof+94416(%rip), %rax
	movq	%rdx, %rbx
	subq	%rax, %rbx
	movq	%rbx, %rax
	bsrq	%rax, %rax
	xorq	$63, %rax
	movl	$63, %edx
	movl	%edx, %esi
	subl	%eax, %esi
	movl	%esi, %eax
	movslq	%eax, %rdx
	addq	$11670, %rdx
	movq	prof+8(,%rdx,8), %rdx
	addq	$1, %rdx
	cltq
	addq	$11670, %rax
	movq	%rdx, prof+8(,%rax,8)
.L768:
	call	rdtsc
	movq	%rax, prof+94416(%rip)
	movq	b_strverscmp(%rip), %rax
	andl	$2, %eax
	testq	%rax, %rax
	je	.L769
	movq	-192(%rbp), %rdx
	movq	-200(%rbp), %rax
	subq	%rax, %rdx
	movq	%rdx, %rax
	sarq	$63, %rax
	shrq	$58, %rax
	addq	%rax, %rdx
	andl	$63, %edx
	movq	%rdx, %rcx
	subq	%rax, %rcx
	movq	%rcx, %rax
	jmp	.L770
.L769:
	movq	-192(%rbp), %rax
	andl	$63, %eax
.L770:
	leaq	11734(%rax), %rdx
	movq	prof+8(,%rdx,8), %rdx
	addq	$1, %rdx
	addq	$11734, %rax
	movq	%rdx, prof+8(,%rax,8)
	movq	prof+94392(%rip), %rax
	addq	$1, %rax
	movq	%rax, prof+94392(%rip)
	cmpq	$16, -208(%rbp)
	ja	.L771
	movq	prof+88560(%rip), %rax
	addq	$1, %rax
	movq	%rax, prof+88560(%rip)
.L771:
	movq	b_strverscmp(%rip), %rax
	andl	$8, %eax
	testq	%rax, %rax
	jne	.L772
	movq	-192(%rbp), %rax
	addq	-208(%rbp), %rax
	movq	%rax, %rdx
	shrq	$4, %rdx
	movq	-192(%rbp), %rax
	shrq	$4, %rax
	movq	%rdx, %rbx
	subq	%rax, %rbx
	movq	%rbx, %rax
	addq	$1, %rax
	jmp	.L773
.L772:
	movq	-208(%rbp), %rax
.L773:
	movq	%rax, -144(%rbp)
	movq	prof+94416(%rip), %rdx
	movq	prof+94408(%rip), %rax
	movq	%rdx, %rsi
	subq	%rax, %rsi
	movq	%rsi, %rax
	cmpq	$1999999, %rax
	ja	.L774
	cmpq	$999, -144(%rbp)
	jbe	.L775
	movq	$999, -144(%rbp)
.L775:
	movq	-144(%rbp), %rax
	movq	%rax, -296(%rbp)
	movabsq	$-3689348814741910323, %rdx
	movq	-296(%rbp), %rax
	mulq	%rdx
	movq	%rdx, %rax
	shrq	$3, %rax
	leaq	11170(%rax), %rdx
	movq	prof+8(,%rdx,8), %rdx
	addq	$1, %rdx
	addq	$11170, %rax
	movq	%rdx, prof+8(,%rax,8)
	movq	-144(%rbp), %rcx
	movq	%rcx, -296(%rbp)
	movabsq	$-3689348814741910323, %rdx
	movq	-296(%rbp), %rax
	mulq	%rdx
	movq	%rdx, %rax
	shrq	$3, %rax
	leaq	11370(%rax), %rdx
	movq	prof+8(,%rdx,8), %rdx
	movq	prof+94416(%rip), %rbx
	movq	prof+94408(%rip), %rcx
	movq	%rbx, %rsi
	subq	%rcx, %rsi
	movq	%rsi, %rcx
	addq	%rcx, %rdx
	addq	$11370, %rax
	movq	%rdx, prof+8(,%rax,8)
	cmpq	$99, -144(%rbp)
	jbe	.L776
	movq	$99, -144(%rbp)
.L776:
	movq	-144(%rbp), %rax
	addq	$11070, %rax
	movq	prof+8(,%rax,8), %rax
	leaq	1(%rax), %rdx
	movq	-144(%rbp), %rax
	addq	$11070, %rax
	movq	%rdx, prof+8(,%rax,8)
	movq	-144(%rbp), %rax
	addq	$11270, %rax
	movq	prof+8(,%rax,8), %rax
	movq	prof+94416(%rip), %rcx
	movq	prof+94408(%rip), %rdx
	movq	%rcx, %rbx
	subq	%rdx, %rbx
	movq	%rbx, %rdx
	leaq	(%rax,%rdx), %rdx
	movq	-144(%rbp), %rax
	addq	$11270, %rax
	movq	%rdx, prof+8(,%rax,8)
.L774:
	movq	b_strverscmp(%rip), %rax
	andl	$1, %eax
	testb	%al, %al
	je	.L777
	movq	-200(%rbp), %rax
	movq	%rax, %rdi
	call	strlen
	movq	%rax, -152(%rbp)
	cmpq	$999, -152(%rbp)
	jbe	.L778
	movq	$999, -152(%rbp)
.L778:
	movq	-152(%rbp), %rsi
	movq	%rsi, -296(%rbp)
	movabsq	$-3689348814741910323, %rdx
	movq	-296(%rbp), %rax
	mulq	%rdx
	movq	%rdx, %rax
	shrq	$3, %rax
	leaq	11570(%rax), %rdx
	movq	prof+8(,%rdx,8), %rdx
	addq	$1, %rdx
	addq	$11570, %rax
	movq	%rdx, prof+8(,%rax,8)
	cmpq	$99, -152(%rbp)
	jbe	.L779
	movq	$99, -152(%rbp)
.L779:
	movq	-152(%rbp), %rax
	addq	$11470, %rax
	movq	prof+8(,%rax,8), %rax
	leaq	1(%rax), %rdx
	movq	-152(%rbp), %rax
	addq	$11470, %rax
	movq	%rdx, prof+8(,%rax,8)
.L777:
	movl	$0, -160(%rbp)
	movl	$0, %eax
	call	backtrace2
	movq	%rax, -256(%rbp)
	movl	$0, -156(%rbp)
	jmp	.L780
.L782:
	movl	-156(%rbp), %eax
	cltq
	addq	$1500, %rax
	movq	call_sites(,%rax,8), %rax
	cmpq	-256(%rbp), %rax
	jne	.L781
	movl	$1, -160(%rbp)
.L781:
	addl	$1, -156(%rbp)
.L780:
	movl	-156(%rbp), %eax
	movslq	%eax, %rdx
	movq	prof+94456(%rip), %rax
	cmpq	%rax, %rdx
	jb	.L782
	cmpl	$0, -160(%rbp)
	jne	.L783
	movq	prof+94456(%rip), %rax
	cmpq	$99, %rax
	ja	.L783
	movq	prof+94456(%rip), %rax
	leaq	1500(%rax), %rdx
	movq	-256(%rbp), %rax
	movq	%rax, call_sites(,%rdx,8)
	movq	prof+94456(%rip), %rax
	addq	$1, %rax
	movq	%rax, prof+94456(%rip)
.L783:
	call	__ctype_b_loc
	movq	(%rax), %rdx
	movq	-32(%rbp), %rax
	movzbl	(%rax), %eax
	movzbl	%al, %eax
	addq	%rax, %rax
	leaq	(%rdx,%rax), %rax
	movzwl	(%rax), %eax
	movzwl	%ax, %eax
	andl	$2048, %eax
	testl	%eax, %eax
	jne	.L784
	movl	-220(%rbp), %eax
	jmp	.L785
.L784:
	movl	$-1, %eax
.L785:
	jmp	.L711
.L802:
	movq	-24(%rbp), %rdx
	movq	-280(%rbp), %rax
	movq	%rdx, %rcx
	subq	%rax, %rcx
	movq	%rcx, %rax
	movq	%rax, -208(%rbp)
	movq	prof+94408(%rip), %rdx
	movq	prof+94416(%rip), %rax
	cmpq	%rax, %rdx
	je	.L786
	movq	prof+94408(%rip), %rdx
	movq	prof+94416(%rip), %rax
	subq	%rax, %rdx
	movabsq	$-2147483649, %rax
	cmpq	%rax, %rdx
	ja	.L786
	movq	prof+94408(%rip), %rdx
	movq	prof+94416(%rip), %rax
	movq	%rdx, %rbx
	subq	%rax, %rbx
	movq	%rbx, %rax
	bsrq	%rax, %rax
	xorq	$63, %rax
	movl	$63, %edx
	movl	%edx, %esi
	subl	%eax, %esi
	movl	%esi, %eax
	movslq	%eax, %rdx
	addq	$11670, %rdx
	movq	prof+8(,%rdx,8), %rdx
	addq	$1, %rdx
	cltq
	addq	$11670, %rax
	movq	%rdx, prof+8(,%rax,8)
.L786:
	call	rdtsc
	movq	%rax, prof+94416(%rip)
	movq	b_strverscmp(%rip), %rax
	andl	$2, %eax
	testq	%rax, %rax
	je	.L787
	movq	-192(%rbp), %rdx
	movq	-200(%rbp), %rax
	subq	%rax, %rdx
	movq	%rdx, %rax
	sarq	$63, %rax
	shrq	$58, %rax
	addq	%rax, %rdx
	andl	$63, %edx
	movq	%rdx, %rcx
	subq	%rax, %rcx
	movq	%rcx, %rax
	jmp	.L788
.L787:
	movq	-192(%rbp), %rax
	andl	$63, %eax
.L788:
	leaq	11734(%rax), %rdx
	movq	prof+8(,%rdx,8), %rdx
	addq	$1, %rdx
	addq	$11734, %rax
	movq	%rdx, prof+8(,%rax,8)
	movq	prof+94392(%rip), %rax
	addq	$1, %rax
	movq	%rax, prof+94392(%rip)
	cmpq	$16, -208(%rbp)
	ja	.L789
	movq	prof+88560(%rip), %rax
	addq	$1, %rax
	movq	%rax, prof+88560(%rip)
.L789:
	movq	b_strverscmp(%rip), %rax
	andl	$8, %eax
	testq	%rax, %rax
	jne	.L790
	movq	-192(%rbp), %rax
	addq	-208(%rbp), %rax
	movq	%rax, %rdx
	shrq	$4, %rdx
	movq	-192(%rbp), %rax
	shrq	$4, %rax
	movq	%rdx, %rbx
	subq	%rax, %rbx
	movq	%rbx, %rax
	addq	$1, %rax
	jmp	.L791
.L790:
	movq	-208(%rbp), %rax
.L791:
	movq	%rax, -168(%rbp)
	movq	prof+94416(%rip), %rdx
	movq	prof+94408(%rip), %rax
	movq	%rdx, %rsi
	subq	%rax, %rsi
	movq	%rsi, %rax
	cmpq	$1999999, %rax
	ja	.L792
	cmpq	$999, -168(%rbp)
	jbe	.L793
	movq	$999, -168(%rbp)
.L793:
	movq	-168(%rbp), %rax
	movq	%rax, -296(%rbp)
	movabsq	$-3689348814741910323, %rdx
	movq	-296(%rbp), %rax
	mulq	%rdx
	movq	%rdx, %rax
	shrq	$3, %rax
	leaq	11170(%rax), %rdx
	movq	prof+8(,%rdx,8), %rdx
	addq	$1, %rdx
	addq	$11170, %rax
	movq	%rdx, prof+8(,%rax,8)
	movq	-168(%rbp), %rcx
	movq	%rcx, -296(%rbp)
	movabsq	$-3689348814741910323, %rdx
	movq	-296(%rbp), %rax
	mulq	%rdx
	movq	%rdx, %rax
	shrq	$3, %rax
	leaq	11370(%rax), %rdx
	movq	prof+8(,%rdx,8), %rdx
	movq	prof+94416(%rip), %rbx
	movq	prof+94408(%rip), %rcx
	movq	%rbx, %rsi
	subq	%rcx, %rsi
	movq	%rsi, %rcx
	addq	%rcx, %rdx
	addq	$11370, %rax
	movq	%rdx, prof+8(,%rax,8)
	cmpq	$99, -168(%rbp)
	jbe	.L794
	movq	$99, -168(%rbp)
.L794:
	movq	-168(%rbp), %rax
	addq	$11070, %rax
	movq	prof+8(,%rax,8), %rax
	leaq	1(%rax), %rdx
	movq	-168(%rbp), %rax
	addq	$11070, %rax
	movq	%rdx, prof+8(,%rax,8)
	movq	-168(%rbp), %rax
	addq	$11270, %rax
	movq	prof+8(,%rax,8), %rax
	movq	prof+94416(%rip), %rcx
	movq	prof+94408(%rip), %rdx
	movq	%rcx, %rbx
	subq	%rdx, %rbx
	movq	%rbx, %rdx
	leaq	(%rax,%rdx), %rdx
	movq	-168(%rbp), %rax
	addq	$11270, %rax
	movq	%rdx, prof+8(,%rax,8)
.L792:
	movq	b_strverscmp(%rip), %rax
	andl	$1, %eax
	testb	%al, %al
	je	.L795
	movq	-200(%rbp), %rax
	movq	%rax, %rdi
	call	strlen
	movq	%rax, -176(%rbp)
	cmpq	$999, -176(%rbp)
	jbe	.L796
	movq	$999, -176(%rbp)
.L796:
	movq	-176(%rbp), %rsi
	movq	%rsi, -296(%rbp)
	movabsq	$-3689348814741910323, %rdx
	movq	-296(%rbp), %rax
	mulq	%rdx
	movq	%rdx, %rax
	shrq	$3, %rax
	leaq	11570(%rax), %rdx
	movq	prof+8(,%rdx,8), %rdx
	addq	$1, %rdx
	addq	$11570, %rax
	movq	%rdx, prof+8(,%rax,8)
	cmpq	$99, -176(%rbp)
	jbe	.L797
	movq	$99, -176(%rbp)
.L797:
	movq	-176(%rbp), %rax
	addq	$11470, %rax
	movq	prof+8(,%rax,8), %rax
	leaq	1(%rax), %rdx
	movq	-176(%rbp), %rax
	addq	$11470, %rax
	movq	%rdx, prof+8(,%rax,8)
.L795:
	movl	$0, -184(%rbp)
	movl	$0, %eax
	call	backtrace2
	movq	%rax, -264(%rbp)
	movl	$0, -180(%rbp)
	jmp	.L798
.L800:
	movl	-180(%rbp), %eax
	cltq
	addq	$1500, %rax
	movq	call_sites(,%rax,8), %rax
	cmpq	-264(%rbp), %rax
	jne	.L799
	movl	$1, -184(%rbp)
.L799:
	addl	$1, -180(%rbp)
.L798:
	movl	-180(%rbp), %eax
	movslq	%eax, %rdx
	movq	prof+94456(%rip), %rax
	cmpq	%rax, %rdx
	jb	.L800
	cmpl	$0, -184(%rbp)
	jne	.L801
	movq	prof+94456(%rip), %rax
	cmpq	$99, %rax
	ja	.L801
	movq	prof+94456(%rip), %rax
	leaq	1500(%rax), %rdx
	movq	-264(%rbp), %rax
	movq	%rax, call_sites(,%rdx,8)
	movq	prof+94456(%rip), %rax
	addq	$1, %rax
	movq	%rax, prof+94456(%rip)
.L801:
	movl	-64(%rbp), %eax
.L711:
	addq	$288, %rsp
	popq	%rbx
	popq	%r12
	leave
	.cfi_def_cfa 7, 8
	ret
	.cfi_endproc
.LFE40:
	.size	strverscmp, .-strverscmp
.globl strtol
	.type	strtol, @function
strtol:
.LFB41:
	.cfi_startproc
	pushq	%rbp
	.cfi_def_cfa_offset 16
	movq	%rsp, %rbp
	.cfi_offset 6, -16
	.cfi_def_cfa_register 6
	pushq	%rbx
	subq	$120, %rsp
	movq	%rdi, -88(%rbp)
	movq	%rsi, -96(%rbp)
	movl	%edx, -100(%rbp)
	.cfi_offset 3, -24
	call	rdtsc
	movq	%rax, prof+100312(%rip)
	movl	-100(%rbp), %edx
	leaq	-72(%rbp), %rcx
	movq	-88(%rbp), %rax
	movq	%rcx, %rsi
	movq	%rax, %rdi
	call	strtoll
	movq	%rax, -48(%rbp)
	movq	-72(%rbp), %rax
	movq	%rax, %rdx
	movq	-88(%rbp), %rax
	movq	%rdx, %rcx
	subq	%rax, %rcx
	movq	%rcx, %rax
	movq	%rax, -56(%rbp)
	cmpq	$0, -96(%rbp)
	je	.L805
	movq	-72(%rbp), %rdx
	movq	-96(%rbp), %rax
	movq	%rdx, (%rax)
.L805:
	movq	prof+100312(%rip), %rdx
	movq	prof+100320(%rip), %rax
	cmpq	%rax, %rdx
	je	.L806
	movq	prof+100312(%rip), %rdx
	movq	prof+100320(%rip), %rax
	subq	%rax, %rdx
	movabsq	$-2147483649, %rax
	cmpq	%rax, %rdx
	ja	.L806
	movq	prof+100312(%rip), %rdx
	movq	prof+100320(%rip), %rax
	movq	%rdx, %rbx
	subq	%rax, %rbx
	movq	%rbx, %rax
	bsrq	%rax, %rax
	xorq	$63, %rax
	movl	$63, %edx
	movl	%edx, %esi
	subl	%eax, %esi
	movl	%esi, %eax
	movslq	%eax, %rdx
	addq	$12408, %rdx
	movq	prof+8(,%rdx,8), %rdx
	addq	$1, %rdx
	cltq
	addq	$12408, %rax
	movq	%rdx, prof+8(,%rax,8)
.L806:
	call	rdtsc
	movq	%rax, prof+100320(%rip)
	movq	b_strtol(%rip), %rax
	andl	$2, %eax
	testq	%rax, %rax
	je	.L807
	movq	-88(%rbp), %rdx
	movq	y(%rip), %rax
	subq	%rax, %rdx
	movq	%rdx, %rax
	sarq	$63, %rax
	shrq	$58, %rax
	addq	%rax, %rdx
	andl	$63, %edx
	movq	%rdx, %rcx
	subq	%rax, %rcx
	movq	%rcx, %rax
	jmp	.L808
.L807:
	movq	-88(%rbp), %rax
	andl	$63, %eax
.L808:
	leaq	12472(%rax), %rdx
	movq	prof+8(,%rdx,8), %rdx
	addq	$1, %rdx
	addq	$12472, %rax
	movq	%rdx, prof+8(,%rax,8)
	movq	prof+100296(%rip), %rax
	addq	$1, %rax
	movq	%rax, prof+100296(%rip)
	cmpq	$16, -56(%rbp)
	ja	.L809
	movq	prof+94464(%rip), %rax
	addq	$1, %rax
	movq	%rax, prof+94464(%rip)
.L809:
	movq	b_strtol(%rip), %rax
	andl	$8, %eax
	testq	%rax, %rax
	jne	.L810
	movq	-88(%rbp), %rax
	addq	-56(%rbp), %rax
	movq	%rax, %rdx
	shrq	$4, %rdx
	movq	-88(%rbp), %rax
	shrq	$4, %rax
	movq	%rdx, %rbx
	subq	%rax, %rbx
	movq	%rbx, %rax
	addq	$1, %rax
	jmp	.L811
.L810:
	movq	-56(%rbp), %rax
.L811:
	movq	%rax, -24(%rbp)
	movq	prof+100320(%rip), %rdx
	movq	prof+100312(%rip), %rax
	movq	%rdx, %rsi
	subq	%rax, %rsi
	movq	%rsi, %rax
	cmpq	$1999999, %rax
	ja	.L812
	cmpq	$999, -24(%rbp)
	jbe	.L813
	movq	$999, -24(%rbp)
.L813:
	movq	-24(%rbp), %rax
	movq	%rax, -120(%rbp)
	movabsq	$-3689348814741910323, %rdx
	movq	-120(%rbp), %rax
	mulq	%rdx
	movq	%rdx, %rax
	shrq	$3, %rax
	leaq	11908(%rax), %rdx
	movq	prof+8(,%rdx,8), %rdx
	addq	$1, %rdx
	addq	$11908, %rax
	movq	%rdx, prof+8(,%rax,8)
	movq	-24(%rbp), %rcx
	movq	%rcx, -120(%rbp)
	movabsq	$-3689348814741910323, %rdx
	movq	-120(%rbp), %rax
	mulq	%rdx
	movq	%rdx, %rax
	shrq	$3, %rax
	leaq	12108(%rax), %rdx
	movq	prof+8(,%rdx,8), %rdx
	movq	prof+100320(%rip), %rbx
	movq	prof+100312(%rip), %rcx
	movq	%rbx, %rsi
	subq	%rcx, %rsi
	movq	%rsi, %rcx
	addq	%rcx, %rdx
	addq	$12108, %rax
	movq	%rdx, prof+8(,%rax,8)
	cmpq	$99, -24(%rbp)
	jbe	.L814
	movq	$99, -24(%rbp)
.L814:
	movq	-24(%rbp), %rax
	addq	$11808, %rax
	movq	prof+8(,%rax,8), %rax
	leaq	1(%rax), %rdx
	movq	-24(%rbp), %rax
	addq	$11808, %rax
	movq	%rdx, prof+8(,%rax,8)
	movq	-24(%rbp), %rax
	addq	$12008, %rax
	movq	prof+8(,%rax,8), %rax
	movq	prof+100320(%rip), %rcx
	movq	prof+100312(%rip), %rdx
	movq	%rcx, %rbx
	subq	%rdx, %rbx
	movq	%rbx, %rdx
	leaq	(%rax,%rdx), %rdx
	movq	-24(%rbp), %rax
	addq	$12008, %rax
	movq	%rdx, prof+8(,%rax,8)
.L812:
	movq	b_strtol(%rip), %rax
	andl	$1, %eax
	testb	%al, %al
	je	.L815
	movq	y(%rip), %rax
	movq	%rax, %rdi
	call	strlen
	movq	%rax, -32(%rbp)
	cmpq	$999, -32(%rbp)
	jbe	.L816
	movq	$999, -32(%rbp)
.L816:
	movq	-32(%rbp), %rsi
	movq	%rsi, -120(%rbp)
	movabsq	$-3689348814741910323, %rdx
	movq	-120(%rbp), %rax
	mulq	%rdx
	movq	%rdx, %rax
	shrq	$3, %rax
	leaq	12308(%rax), %rdx
	movq	prof+8(,%rdx,8), %rdx
	addq	$1, %rdx
	addq	$12308, %rax
	movq	%rdx, prof+8(,%rax,8)
	cmpq	$99, -32(%rbp)
	jbe	.L817
	movq	$99, -32(%rbp)
.L817:
	movq	-32(%rbp), %rax
	addq	$12208, %rax
	movq	prof+8(,%rax,8), %rax
	leaq	1(%rax), %rdx
	movq	-32(%rbp), %rax
	addq	$12208, %rax
	movq	%rdx, prof+8(,%rax,8)
.L815:
	movl	$0, -40(%rbp)
	movl	$0, %eax
	call	backtrace2
	movq	%rax, -64(%rbp)
	movl	$0, -36(%rbp)
	jmp	.L818
.L820:
	movl	-36(%rbp), %eax
	cltq
	addq	$1600, %rax
	movq	call_sites(,%rax,8), %rax
	cmpq	-64(%rbp), %rax
	jne	.L819
	movl	$1, -40(%rbp)
.L819:
	addl	$1, -36(%rbp)
.L818:
	movl	-36(%rbp), %eax
	movslq	%eax, %rdx
	movq	prof+100360(%rip), %rax
	cmpq	%rax, %rdx
	jb	.L820
	cmpl	$0, -40(%rbp)
	jne	.L821
	movq	prof+100360(%rip), %rax
	cmpq	$99, %rax
	ja	.L821
	movq	prof+100360(%rip), %rax
	leaq	1600(%rax), %rdx
	movq	-64(%rbp), %rax
	movq	%rax, call_sites(,%rdx,8)
	movq	prof+100360(%rip), %rax
	addq	$1, %rax
	movq	%rax, prof+100360(%rip)
.L821:
	movq	-48(%rbp), %rax
	addq	$120, %rsp
	popq	%rbx
	leave
	.cfi_def_cfa 7, 8
	ret
	.cfi_endproc
.LFE41:
	.size	strtol, .-strtol
.globl __malloc2
	.type	__malloc2, @function
__malloc2:
.LFB42:
	.cfi_startproc
	pushq	%rbp
	.cfi_def_cfa_offset 16
	movq	%rsp, %rbp
	.cfi_offset 6, -16
	.cfi_def_cfa_register 6
	pushq	%rbx
	subq	$104, %rsp
	movq	%rdi, -88(%rbp)
	.cfi_offset 3, -24
	call	rdtsc
	movq	%rax, prof+106216(%rip)
	movq	__malloc_hook2(%rip), %rax
	movq	%rax, __malloc_hook(%rip)
	movq	-88(%rbp), %rax
	movq	%rax, %rdi
	call	malloc
	movq	%rax, -64(%rbp)
	movl	$__malloc2, %eax
	movq	%rax, __malloc_hook(%rip)
	movq	-88(%rbp), %rax
	addq	$7, %rax
	shrq	$3, %rax
	movq	%rax, -88(%rbp)
	movq	prof+106216(%rip), %rdx
	movq	prof+106224(%rip), %rax
	cmpq	%rax, %rdx
	je	.L823
	movq	prof+106216(%rip), %rdx
	movq	prof+106224(%rip), %rax
	subq	%rax, %rdx
	movabsq	$-2147483649, %rax
	cmpq	%rax, %rdx
	ja	.L823
	movq	prof+106216(%rip), %rdx
	movq	prof+106224(%rip), %rax
	movq	%rdx, %rcx
	subq	%rax, %rcx
	movq	%rcx, %rax
	bsrq	%rax, %rax
	xorq	$63, %rax
	movl	$63, %edx
	movl	%edx, %ebx
	subl	%eax, %ebx
	movl	%ebx, %eax
	movslq	%eax, %rdx
	addq	$13146, %rdx
	movq	prof+8(,%rdx,8), %rdx
	addq	$1, %rdx
	cltq
	addq	$13146, %rax
	movq	%rdx, prof+8(,%rax,8)
.L823:
	call	rdtsc
	movq	%rax, prof+106224(%rip)
	movq	b_malloc(%rip), %rax
	andl	$2, %eax
	testq	%rax, %rax
	je	.L824
	movq	-64(%rbp), %rdx
	movq	y(%rip), %rax
	subq	%rax, %rdx
	movq	%rdx, %rax
	sarq	$63, %rax
	shrq	$58, %rax
	addq	%rax, %rdx
	andl	$63, %edx
	movq	%rdx, %rsi
	subq	%rax, %rsi
	movq	%rsi, %rax
	jmp	.L825
.L824:
	movq	-64(%rbp), %rax
	andl	$63, %eax
.L825:
	leaq	13210(%rax), %rdx
	movq	prof+8(,%rdx,8), %rdx
	addq	$1, %rdx
	addq	$13210, %rax
	movq	%rdx, prof+8(,%rax,8)
	movq	prof+106200(%rip), %rax
	addq	$1, %rax
	movq	%rax, prof+106200(%rip)
	cmpq	$16, -88(%rbp)
	ja	.L826
	movq	prof+100368(%rip), %rax
	addq	$1, %rax
	movq	%rax, prof+100368(%rip)
.L826:
	movq	b_malloc(%rip), %rax
	andl	$8, %eax
	testq	%rax, %rax
	jne	.L827
	movq	-64(%rbp), %rax
	addq	-88(%rbp), %rax
	movq	%rax, %rdx
	shrq	$4, %rdx
	movq	-64(%rbp), %rax
	shrq	$4, %rax
	movq	%rdx, %rcx
	subq	%rax, %rcx
	movq	%rcx, %rax
	addq	$1, %rax
	jmp	.L828
.L827:
	movq	-88(%rbp), %rax
.L828:
	movq	%rax, -32(%rbp)
	movq	prof+106224(%rip), %rdx
	movq	prof+106216(%rip), %rax
	movq	%rdx, %rbx
	subq	%rax, %rbx
	movq	%rbx, %rax
	cmpq	$1999999, %rax
	ja	.L829
	cmpq	$999, -32(%rbp)
	jbe	.L830
	movq	$999, -32(%rbp)
.L830:
	movq	-32(%rbp), %rsi
	movq	%rsi, -104(%rbp)
	movabsq	$-3689348814741910323, %rdx
	movq	-104(%rbp), %rax
	mulq	%rdx
	movq	%rdx, %rax
	shrq	$3, %rax
	leaq	12646(%rax), %rdx
	movq	prof+8(,%rdx,8), %rdx
	addq	$1, %rdx
	addq	$12646, %rax
	movq	%rdx, prof+8(,%rax,8)
	movq	-32(%rbp), %rcx
	movq	%rcx, -104(%rbp)
	movabsq	$-3689348814741910323, %rdx
	movq	-104(%rbp), %rax
	mulq	%rdx
	movq	%rdx, %rax
	shrq	$3, %rax
	leaq	12846(%rax), %rdx
	movq	prof+8(,%rdx,8), %rdx
	movq	prof+106224(%rip), %rbx
	movq	prof+106216(%rip), %rcx
	movq	%rbx, %rsi
	subq	%rcx, %rsi
	movq	%rsi, %rcx
	addq	%rcx, %rdx
	addq	$12846, %rax
	movq	%rdx, prof+8(,%rax,8)
	cmpq	$99, -32(%rbp)
	jbe	.L831
	movq	$99, -32(%rbp)
.L831:
	movq	-32(%rbp), %rax
	addq	$12546, %rax
	movq	prof+8(,%rax,8), %rax
	leaq	1(%rax), %rdx
	movq	-32(%rbp), %rax
	addq	$12546, %rax
	movq	%rdx, prof+8(,%rax,8)
	movq	-32(%rbp), %rax
	addq	$12746, %rax
	movq	prof+8(,%rax,8), %rax
	movq	prof+106224(%rip), %rcx
	movq	prof+106216(%rip), %rdx
	movq	%rcx, %rbx
	subq	%rdx, %rbx
	movq	%rbx, %rdx
	leaq	(%rax,%rdx), %rdx
	movq	-32(%rbp), %rax
	addq	$12746, %rax
	movq	%rdx, prof+8(,%rax,8)
.L829:
	movq	b_malloc(%rip), %rax
	andl	$1, %eax
	testb	%al, %al
	je	.L832
	movq	y(%rip), %rax
	movq	%rax, %rdi
	call	strlen
	movq	%rax, -40(%rbp)
	cmpq	$999, -40(%rbp)
	jbe	.L833
	movq	$999, -40(%rbp)
.L833:
	movq	-40(%rbp), %rsi
	movq	%rsi, -104(%rbp)
	movabsq	$-3689348814741910323, %rdx
	movq	-104(%rbp), %rax
	mulq	%rdx
	movq	%rdx, %rax
	shrq	$3, %rax
	leaq	13046(%rax), %rdx
	movq	prof+8(,%rdx,8), %rdx
	addq	$1, %rdx
	addq	$13046, %rax
	movq	%rdx, prof+8(,%rax,8)
	cmpq	$99, -40(%rbp)
	jbe	.L834
	movq	$99, -40(%rbp)
.L834:
	movq	-40(%rbp), %rax
	addq	$12946, %rax
	movq	prof+8(,%rax,8), %rax
	leaq	1(%rax), %rdx
	movq	-40(%rbp), %rax
	addq	$12946, %rax
	movq	%rdx, prof+8(,%rax,8)
.L832:
	movl	$0, -48(%rbp)
	movl	$0, %eax
	call	backtrace2
	movq	%rax, -72(%rbp)
	movl	$0, -44(%rbp)
	jmp	.L835
.L837:
	movl	-44(%rbp), %eax
	cltq
	addq	$1700, %rax
	movq	call_sites(,%rax,8), %rax
	cmpq	-72(%rbp), %rax
	jne	.L836
	movl	$1, -48(%rbp)
.L836:
	addl	$1, -44(%rbp)
.L835:
	movl	-44(%rbp), %eax
	movslq	%eax, %rdx
	movq	prof+106264(%rip), %rax
	cmpq	%rax, %rdx
	jb	.L837
	cmpl	$0, -48(%rbp)
	jne	.L838
	movq	prof+106264(%rip), %rax
	cmpq	$99, %rax
	ja	.L838
	movq	prof+106264(%rip), %rax
	leaq	1700(%rax), %rdx
	movq	-72(%rbp), %rax
	movq	%rax, call_sites(,%rdx,8)
	movq	prof+106264(%rip), %rax
	addq	$1, %rax
	movq	%rax, prof+106264(%rip)
.L838:
	call	pthread_self
	movq	%rax, -80(%rbp)
	movq	-64(%rbp), %rax
	imulq	$12373, %rax, %rax
	leaq	31(%rax), %rdx
	testq	%rax, %rax
	cmovs	%rdx, %rax
	sarq	$5, %rax
	movq	%rax, %rdx
	sarq	$63, %rdx
	shrq	$44, %rdx
	addq	%rdx, %rax
	andl	$1048575, %eax
	subq	%rdx, %rax
	movl	%eax, -52(%rbp)
	movl	$0, -20(%rbp)
	jmp	.L839
.L841:
	movq	mall_hash(%rip), %rax
	movl	-52(%rbp), %edx
	movslq	%edx, %rdx
	salq	$5, %rdx
	addq	%rdx, %rax
	movq	(%rax), %rax
	testq	%rax, %rax
	je	.L840
	addl	$1, -52(%rbp)
.L840:
	addl	$1, -20(%rbp)
.L839:
	cmpl	$7, -20(%rbp)
	jle	.L841
	movq	mall_hash(%rip), %rax
	movl	-52(%rbp), %edx
	movslq	%edx, %rdx
	salq	$5, %rdx
	addq	%rdx, %rax
	movq	(%rax), %rax
	testq	%rax, %rax
	jne	.L842
	movq	mall_hash(%rip), %rax
	movl	-52(%rbp), %edx
	movslq	%edx, %rdx
	salq	$5, %rdx
	leaq	(%rax,%rdx), %rdx
	movq	-64(%rbp), %rax
	movq	%rax, (%rdx)
	movq	mall_hash(%rip), %rax
	movl	-52(%rbp), %edx
	movslq	%edx, %rdx
	salq	$5, %rdx
	leaq	(%rax,%rdx), %rdx
	movq	-88(%rbp), %rax
	movq	%rax, 16(%rdx)
	movq	mall_hash(%rip), %rax
	movl	-52(%rbp), %edx
	movslq	%edx, %rdx
	salq	$5, %rdx
	leaq	(%rax,%rdx), %rdx
	movq	prof+106224(%rip), %rax
	movq	%rax, 8(%rdx)
	movq	mall_hash(%rip), %rax
	movl	-52(%rbp), %edx
	movslq	%edx, %rdx
	salq	$5, %rdx
	leaq	(%rax,%rdx), %rdx
	movq	-80(%rbp), %rax
	movq	%rax, 24(%rdx)
.L842:
	movq	main_tid(%rip), %rax
	movq	-80(%rbp), %rdx
	movq	%rdx, %rsi
	movq	%rax, %rdi
	call	pthread_equal
	testl	%eax, %eax
	jne	.L843
	movq	prof+106232(%rip), %rax
	addq	$1, %rax
	movq	%rax, prof+106232(%rip)
.L843:
	movq	-64(%rbp), %rax
	addq	$104, %rsp
	popq	%rbx
	leave
	.cfi_def_cfa 7, 8
	ret
	.cfi_endproc
.LFE42:
	.size	__malloc2, .-__malloc2
.globl __free2
	.type	__free2, @function
__free2:
.LFB43:
	.cfi_startproc
	pushq	%rbp
	.cfi_def_cfa_offset 16
	movq	%rsp, %rbp
	.cfi_offset 6, -16
	.cfi_def_cfa_register 6
	pushq	%rbx
	subq	$136, %rsp
	movq	%rdi, -120(%rbp)
	.cfi_offset 3, -24
	call	rdtsc
	movq	%rax, prof+118024(%rip)
	movq	__free_hook2(%rip), %rax
	movq	%rax, __free_hook(%rip)
	movq	-120(%rbp), %rax
	movq	%rax, %rdi
	call	free
	movl	$__free2, %eax
	movq	%rax, __free_hook(%rip)
	movq	prof+118024(%rip), %rdx
	movq	prof+118032(%rip), %rax
	cmpq	%rax, %rdx
	je	.L845
	movq	prof+118024(%rip), %rdx
	movq	prof+118032(%rip), %rax
	subq	%rax, %rdx
	movabsq	$-2147483649, %rax
	cmpq	%rax, %rdx
	ja	.L845
	movq	prof+118024(%rip), %rdx
	movq	prof+118032(%rip), %rax
	movq	%rdx, %rcx
	subq	%rax, %rcx
	movq	%rcx, %rax
	bsrq	%rax, %rax
	xorq	$63, %rax
	movl	$63, %edx
	movl	%edx, %ebx
	subl	%eax, %ebx
	movl	%ebx, %eax
	movslq	%eax, %rdx
	addq	$14622, %rdx
	movq	prof+8(,%rdx,8), %rdx
	addq	$1, %rdx
	cltq
	addq	$14622, %rax
	movq	%rdx, prof+8(,%rax,8)
.L845:
	call	rdtsc
	movq	%rax, prof+118032(%rip)
	movq	b_free(%rip), %rax
	andl	$2, %eax
	testq	%rax, %rax
	je	.L846
	movq	x(%rip), %rax
	movq	%rax, %rdx
	movq	y(%rip), %rax
	subq	%rax, %rdx
	movq	%rdx, %rax
	sarq	$63, %rax
	shrq	$58, %rax
	addq	%rax, %rdx
	andl	$63, %edx
	movq	%rdx, %rsi
	subq	%rax, %rsi
	movq	%rsi, %rax
	jmp	.L847
.L846:
	movq	x(%rip), %rax
	andl	$63, %eax
.L847:
	leaq	14686(%rax), %rdx
	movq	prof+8(,%rdx,8), %rdx
	addq	$1, %rdx
	addq	$14686, %rax
	movq	%rdx, prof+8(,%rax,8)
	movq	prof+118008(%rip), %rax
	addq	$1, %rax
	movq	%rax, prof+118008(%rip)
	movq	r(%rip), %rax
	cmpq	$16, %rax
	ja	.L848
	movq	prof+112176(%rip), %rax
	addq	$1, %rax
	movq	%rax, prof+112176(%rip)
.L848:
	movq	b_free(%rip), %rax
	andl	$8, %eax
	testq	%rax, %rax
	jne	.L849
	movq	x(%rip), %rax
	movq	%rax, %rdx
	movq	r(%rip), %rax
	leaq	(%rdx,%rax), %rax
	movq	%rax, %rdx
	shrq	$4, %rdx
	movq	x(%rip), %rax
	shrq	$4, %rax
	movq	%rdx, %rcx
	subq	%rax, %rcx
	movq	%rcx, %rax
	addq	$1, %rax
	jmp	.L850
.L849:
	movq	r(%rip), %rax
.L850:
	movq	%rax, -32(%rbp)
	movq	prof+118032(%rip), %rdx
	movq	prof+118024(%rip), %rax
	movq	%rdx, %rbx
	subq	%rax, %rbx
	movq	%rbx, %rax
	cmpq	$1999999, %rax
	ja	.L851
	cmpq	$999, -32(%rbp)
	jbe	.L852
	movq	$999, -32(%rbp)
.L852:
	movq	-32(%rbp), %rsi
	movq	%rsi, -136(%rbp)
	movabsq	$-3689348814741910323, %rdx
	movq	-136(%rbp), %rax
	mulq	%rdx
	movq	%rdx, %rax
	shrq	$3, %rax
	leaq	14122(%rax), %rdx
	movq	prof+8(,%rdx,8), %rdx
	addq	$1, %rdx
	addq	$14122, %rax
	movq	%rdx, prof+8(,%rax,8)
	movq	-32(%rbp), %rcx
	movq	%rcx, -136(%rbp)
	movabsq	$-3689348814741910323, %rdx
	movq	-136(%rbp), %rax
	mulq	%rdx
	movq	%rdx, %rax
	shrq	$3, %rax
	leaq	14322(%rax), %rdx
	movq	prof+8(,%rdx,8), %rdx
	movq	prof+118032(%rip), %rbx
	movq	prof+118024(%rip), %rcx
	movq	%rbx, %rsi
	subq	%rcx, %rsi
	movq	%rsi, %rcx
	addq	%rcx, %rdx
	addq	$14322, %rax
	movq	%rdx, prof+8(,%rax,8)
	cmpq	$99, -32(%rbp)
	jbe	.L853
	movq	$99, -32(%rbp)
.L853:
	movq	-32(%rbp), %rax
	addq	$14022, %rax
	movq	prof+8(,%rax,8), %rax
	leaq	1(%rax), %rdx
	movq	-32(%rbp), %rax
	addq	$14022, %rax
	movq	%rdx, prof+8(,%rax,8)
	movq	-32(%rbp), %rax
	addq	$14222, %rax
	movq	prof+8(,%rax,8), %rax
	movq	prof+118032(%rip), %rcx
	movq	prof+118024(%rip), %rdx
	movq	%rcx, %rbx
	subq	%rdx, %rbx
	movq	%rbx, %rdx
	leaq	(%rax,%rdx), %rdx
	movq	-32(%rbp), %rax
	addq	$14222, %rax
	movq	%rdx, prof+8(,%rax,8)
.L851:
	movq	b_free(%rip), %rax
	andl	$1, %eax
	testb	%al, %al
	je	.L854
	movq	y(%rip), %rax
	movq	%rax, %rdi
	call	strlen
	movq	%rax, -40(%rbp)
	cmpq	$999, -40(%rbp)
	jbe	.L855
	movq	$999, -40(%rbp)
.L855:
	movq	-40(%rbp), %rsi
	movq	%rsi, -136(%rbp)
	movabsq	$-3689348814741910323, %rdx
	movq	-136(%rbp), %rax
	mulq	%rdx
	movq	%rdx, %rax
	shrq	$3, %rax
	leaq	14522(%rax), %rdx
	movq	prof+8(,%rdx,8), %rdx
	addq	$1, %rdx
	addq	$14522, %rax
	movq	%rdx, prof+8(,%rax,8)
	cmpq	$99, -40(%rbp)
	jbe	.L856
	movq	$99, -40(%rbp)
.L856:
	movq	-40(%rbp), %rax
	addq	$14422, %rax
	movq	prof+8(,%rax,8), %rax
	leaq	1(%rax), %rdx
	movq	-40(%rbp), %rax
	addq	$14422, %rax
	movq	%rdx, prof+8(,%rax,8)
.L854:
	movl	$0, -48(%rbp)
	movl	$0, %eax
	call	backtrace2
	movq	%rax, -88(%rbp)
	movl	$0, -44(%rbp)
	jmp	.L857
.L859:
	movl	-44(%rbp), %eax
	cltq
	addq	$1900, %rax
	movq	call_sites(,%rax,8), %rax
	cmpq	-88(%rbp), %rax
	jne	.L858
	movl	$1, -48(%rbp)
.L858:
	addl	$1, -44(%rbp)
.L857:
	movl	-44(%rbp), %eax
	movslq	%eax, %rdx
	movq	prof+118072(%rip), %rax
	cmpq	%rax, %rdx
	jb	.L859
	cmpl	$0, -48(%rbp)
	jne	.L860
	movq	prof+118072(%rip), %rax
	cmpq	$99, %rax
	ja	.L860
	movq	prof+118072(%rip), %rax
	leaq	1900(%rax), %rdx
	movq	-88(%rbp), %rax
	movq	%rax, call_sites(,%rdx,8)
	movq	prof+118072(%rip), %rax
	addq	$1, %rax
	movq	%rax, prof+118072(%rip)
.L860:
	cmpq	$0, -120(%rbp)
	je	.L883
.L861:
	call	pthread_self
	movq	%rax, -96(%rbp)
	movq	main_tid(%rip), %rax
	movq	-96(%rbp), %rdx
	movq	%rdx, %rsi
	movq	%rax, %rdi
	call	pthread_equal
	testl	%eax, %eax
	jne	.L863
	movq	prof+118040(%rip), %rax
	addq	$1, %rax
	movq	%rax, prof+118040(%rip)
.L863:
	movq	-120(%rbp), %rax
	imulq	$12373, %rax, %rax
	leaq	31(%rax), %rdx
	testq	%rax, %rax
	cmovs	%rdx, %rax
	sarq	$5, %rax
	movq	%rax, %rdx
	sarq	$63, %rdx
	shrq	$44, %rdx
	addq	%rdx, %rax
	andl	$1048575, %eax
	subq	%rdx, %rax
	movl	%eax, -52(%rbp)
	movl	$0, -20(%rbp)
	jmp	.L864
.L866:
	movq	mall_hash(%rip), %rax
	movl	-52(%rbp), %edx
	movslq	%edx, %rdx
	salq	$5, %rdx
	addq	%rdx, %rax
	movq	(%rax), %rax
	cmpq	-120(%rbp), %rax
	je	.L865
	addl	$1, -52(%rbp)
.L865:
	addl	$1, -20(%rbp)
.L864:
	cmpl	$7, -20(%rbp)
	jle	.L866
	movq	mall_hash(%rip), %rax
	movl	-52(%rbp), %edx
	movslq	%edx, %rdx
	salq	$5, %rdx
	addq	%rdx, %rax
	movq	(%rax), %rax
	cmpq	-120(%rbp), %rax
	jne	.L844
	movq	mall_hash(%rip), %rax
	movl	-52(%rbp), %edx
	movslq	%edx, %rdx
	salq	$5, %rdx
	addq	%rdx, %rax
	movq	$0, (%rax)
	movq	mall_hash(%rip), %rax
	movl	-52(%rbp), %edx
	movslq	%edx, %rdx
	salq	$5, %rdx
	addq	%rdx, %rax
	movq	16(%rax), %rax
	movq	%rax, -104(%rbp)
	movq	mall_hash(%rip), %rax
	movl	-52(%rbp), %edx
	movslq	%edx, %rdx
	salq	$5, %rdx
	addq	%rdx, %rax
	movq	8(%rax), %rax
	movq	%rax, prof+112120(%rip)
	movq	prof+112120(%rip), %rdx
	movq	prof+112128(%rip), %rax
	cmpq	%rax, %rdx
	je	.L867
	movq	prof+112120(%rip), %rdx
	movq	prof+112128(%rip), %rax
	subq	%rax, %rdx
	movabsq	$-2147483649, %rax
	cmpq	%rax, %rdx
	ja	.L867
	movq	prof+112120(%rip), %rdx
	movq	prof+112128(%rip), %rax
	movq	%rdx, %rcx
	subq	%rax, %rcx
	movq	%rcx, %rax
	bsrq	%rax, %rax
	xorq	$63, %rax
	movl	$63, %edx
	movl	%edx, %ebx
	subl	%eax, %ebx
	movl	%ebx, %eax
	movslq	%eax, %rdx
	addq	$13884, %rdx
	movq	prof+8(,%rdx,8), %rdx
	addq	$1, %rdx
	cltq
	addq	$13884, %rax
	movq	%rdx, prof+8(,%rax,8)
.L867:
	call	rdtsc
	movq	%rax, prof+112128(%rip)
	movq	b_malloc_lifetime(%rip), %rax
	andl	$2, %eax
	testq	%rax, %rax
	je	.L868
	movq	x(%rip), %rax
	movq	%rax, %rdx
	movq	y(%rip), %rax
	subq	%rax, %rdx
	movq	%rdx, %rax
	sarq	$63, %rax
	shrq	$58, %rax
	addq	%rax, %rdx
	andl	$63, %edx
	movq	%rdx, %rsi
	subq	%rax, %rsi
	movq	%rsi, %rax
	jmp	.L869
.L868:
	movq	x(%rip), %rax
	andl	$63, %eax
.L869:
	leaq	13948(%rax), %rdx
	movq	prof+8(,%rdx,8), %rdx
	addq	$1, %rdx
	addq	$13948, %rax
	movq	%rdx, prof+8(,%rax,8)
	movq	prof+112104(%rip), %rax
	addq	$1, %rax
	movq	%rax, prof+112104(%rip)
	cmpq	$16, -104(%rbp)
	ja	.L870
	movq	prof+106272(%rip), %rax
	addq	$1, %rax
	movq	%rax, prof+106272(%rip)
.L870:
	movq	b_malloc_lifetime(%rip), %rax
	andl	$8, %eax
	testq	%rax, %rax
	jne	.L871
	movq	x(%rip), %rax
	addq	-104(%rbp), %rax
	movq	%rax, %rdx
	shrq	$4, %rdx
	movq	x(%rip), %rax
	shrq	$4, %rax
	movq	%rdx, %rcx
	subq	%rax, %rcx
	movq	%rcx, %rax
	addq	$1, %rax
	jmp	.L872
.L871:
	movq	-104(%rbp), %rax
.L872:
	movq	%rax, -64(%rbp)
	movq	prof+112128(%rip), %rdx
	movq	prof+112120(%rip), %rax
	movq	%rdx, %rbx
	subq	%rax, %rbx
	movq	%rbx, %rax
	cmpq	$1999999, %rax
	ja	.L873
	cmpq	$999, -64(%rbp)
	jbe	.L874
	movq	$999, -64(%rbp)
.L874:
	movq	-64(%rbp), %rsi
	movq	%rsi, -136(%rbp)
	movabsq	$-3689348814741910323, %rdx
	movq	-136(%rbp), %rax
	mulq	%rdx
	movq	%rdx, %rax
	shrq	$3, %rax
	leaq	13384(%rax), %rdx
	movq	prof+8(,%rdx,8), %rdx
	addq	$1, %rdx
	addq	$13384, %rax
	movq	%rdx, prof+8(,%rax,8)
	movq	-64(%rbp), %rcx
	movq	%rcx, -136(%rbp)
	movabsq	$-3689348814741910323, %rdx
	movq	-136(%rbp), %rax
	mulq	%rdx
	movq	%rdx, %rax
	shrq	$3, %rax
	leaq	13584(%rax), %rdx
	movq	prof+8(,%rdx,8), %rdx
	movq	prof+112128(%rip), %rbx
	movq	prof+112120(%rip), %rcx
	movq	%rbx, %rsi
	subq	%rcx, %rsi
	movq	%rsi, %rcx
	addq	%rcx, %rdx
	addq	$13584, %rax
	movq	%rdx, prof+8(,%rax,8)
	cmpq	$99, -64(%rbp)
	jbe	.L875
	movq	$99, -64(%rbp)
.L875:
	movq	-64(%rbp), %rax
	addq	$13284, %rax
	movq	prof+8(,%rax,8), %rax
	leaq	1(%rax), %rdx
	movq	-64(%rbp), %rax
	addq	$13284, %rax
	movq	%rdx, prof+8(,%rax,8)
	movq	-64(%rbp), %rax
	addq	$13484, %rax
	movq	prof+8(,%rax,8), %rax
	movq	prof+112128(%rip), %rcx
	movq	prof+112120(%rip), %rdx
	movq	%rcx, %rbx
	subq	%rdx, %rbx
	movq	%rbx, %rdx
	leaq	(%rax,%rdx), %rdx
	movq	-64(%rbp), %rax
	addq	$13484, %rax
	movq	%rdx, prof+8(,%rax,8)
.L873:
	movq	b_malloc_lifetime(%rip), %rax
	andl	$1, %eax
	testb	%al, %al
	je	.L876
	movq	y(%rip), %rax
	movq	%rax, %rdi
	call	strlen
	movq	%rax, -72(%rbp)
	cmpq	$999, -72(%rbp)
	jbe	.L877
	movq	$999, -72(%rbp)
.L877:
	movq	-72(%rbp), %rsi
	movq	%rsi, -136(%rbp)
	movabsq	$-3689348814741910323, %rdx
	movq	-136(%rbp), %rax
	mulq	%rdx
	movq	%rdx, %rax
	shrq	$3, %rax
	leaq	13784(%rax), %rdx
	movq	prof+8(,%rdx,8), %rdx
	addq	$1, %rdx
	addq	$13784, %rax
	movq	%rdx, prof+8(,%rax,8)
	cmpq	$99, -72(%rbp)
	jbe	.L878
	movq	$99, -72(%rbp)
.L878:
	movq	-72(%rbp), %rax
	addq	$13684, %rax
	movq	prof+8(,%rax,8), %rax
	leaq	1(%rax), %rdx
	movq	-72(%rbp), %rax
	addq	$13684, %rax
	movq	%rdx, prof+8(,%rax,8)
.L876:
	movl	$0, -80(%rbp)
	movl	$0, %eax
	call	backtrace2
	movq	%rax, -112(%rbp)
	movl	$0, -76(%rbp)
	jmp	.L879
.L881:
	movl	-76(%rbp), %eax
	cltq
	addq	$1800, %rax
	movq	call_sites(,%rax,8), %rax
	cmpq	-112(%rbp), %rax
	jne	.L880
	movl	$1, -80(%rbp)
.L880:
	addl	$1, -76(%rbp)
.L879:
	movl	-76(%rbp), %eax
	movslq	%eax, %rdx
	movq	prof+112168(%rip), %rax
	cmpq	%rax, %rdx
	jb	.L881
	cmpl	$0, -80(%rbp)
	jne	.L882
	movq	prof+112168(%rip), %rax
	cmpq	$99, %rax
	ja	.L882
	movq	prof+112168(%rip), %rax
	leaq	1800(%rax), %rdx
	movq	-112(%rbp), %rax
	movq	%rax, call_sites(,%rdx,8)
	movq	prof+112168(%rip), %rax
	addq	$1, %rax
	movq	%rax, prof+112168(%rip)
.L882:
	movq	mall_hash(%rip), %rax
	movl	-52(%rbp), %edx
	movslq	%edx, %rdx
	salq	$5, %rdx
	addq	%rdx, %rax
	movq	24(%rax), %rdx
	movq	-96(%rbp), %rax
	movq	%rdx, %rsi
	movq	%rax, %rdi
	call	pthread_equal
	testl	%eax, %eax
	jne	.L844
	movq	prof+112136(%rip), %rax
	addq	$1, %rax
	movq	%rax, prof+112136(%rip)
	jmp	.L844
.L883:
	nop
.L844:
	addq	$136, %rsp
	popq	%rbx
	leave
	.cfi_def_cfa 7, 8
	ret
	.cfi_endproc
.LFE43:
	.size	__free2, .-__free2
.globl __realloc2
	.type	__realloc2, @function
__realloc2:
.LFB44:
	.cfi_startproc
	pushq	%rbp
	.cfi_def_cfa_offset 16
	movq	%rsp, %rbp
	.cfi_offset 6, -16
	.cfi_def_cfa_register 6
	pushq	%rbx
	subq	$152, %rsp
	movq	%rdi, -136(%rbp)
	movq	%rsi, -144(%rbp)
	.cfi_offset 3, -24
	call	pthread_self
	movq	%rax, -88(%rbp)
	cmpq	$0, -136(%rbp)
	je	.L885
	movq	-136(%rbp), %rax
	imulq	$12373, %rax, %rax
	leaq	31(%rax), %rdx
	testq	%rax, %rax
	cmovs	%rdx, %rax
	sarq	$5, %rax
	movq	%rax, %rdx
	sarq	$63, %rdx
	shrq	$44, %rdx
	addq	%rdx, %rax
	andl	$1048575, %eax
	subq	%rdx, %rax
	movl	%eax, -24(%rbp)
	movl	$0, -20(%rbp)
	jmp	.L886
.L888:
	movq	mall_hash(%rip), %rax
	movl	-24(%rbp), %edx
	movslq	%edx, %rdx
	salq	$5, %rdx
	addq	%rdx, %rax
	movq	(%rax), %rax
	cmpq	-136(%rbp), %rax
	je	.L887
	addl	$1, -24(%rbp)
.L887:
	addl	$1, -20(%rbp)
.L886:
	cmpl	$7, -20(%rbp)
	jle	.L888
	movq	mall_hash(%rip), %rax
	movl	-24(%rbp), %edx
	movslq	%edx, %rdx
	salq	$5, %rdx
	addq	%rdx, %rax
	movq	(%rax), %rax
	cmpq	-136(%rbp), %rax
	jne	.L885
	movq	mall_hash(%rip), %rax
	movl	-24(%rbp), %edx
	movslq	%edx, %rdx
	salq	$5, %rdx
	addq	%rdx, %rax
	movq	$0, (%rax)
	movq	mall_hash(%rip), %rax
	movl	-24(%rbp), %edx
	movslq	%edx, %rdx
	salq	$5, %rdx
	addq	%rdx, %rax
	movq	16(%rax), %rax
	movq	%rax, -96(%rbp)
	movq	mall_hash(%rip), %rax
	movl	-24(%rbp), %edx
	movslq	%edx, %rdx
	salq	$5, %rdx
	addq	%rdx, %rax
	movq	8(%rax), %rax
	movq	%rax, prof+112120(%rip)
	movq	prof+112120(%rip), %rdx
	movq	prof+112128(%rip), %rax
	cmpq	%rax, %rdx
	je	.L889
	movq	prof+112120(%rip), %rdx
	movq	prof+112128(%rip), %rax
	subq	%rax, %rdx
	movabsq	$-2147483649, %rax
	cmpq	%rax, %rdx
	ja	.L889
	movq	prof+112120(%rip), %rdx
	movq	prof+112128(%rip), %rax
	movq	%rdx, %rcx
	subq	%rax, %rcx
	movq	%rcx, %rax
	bsrq	%rax, %rax
	xorq	$63, %rax
	movl	$63, %edx
	movl	%edx, %ebx
	subl	%eax, %ebx
	movl	%ebx, %eax
	movslq	%eax, %rdx
	addq	$13884, %rdx
	movq	prof+8(,%rdx,8), %rdx
	addq	$1, %rdx
	cltq
	addq	$13884, %rax
	movq	%rdx, prof+8(,%rax,8)
.L889:
	call	rdtsc
	movq	%rax, prof+112128(%rip)
	movq	b_malloc_lifetime(%rip), %rax
	andl	$2, %eax
	testq	%rax, %rax
	je	.L890
	movq	x(%rip), %rax
	movq	%rax, %rdx
	movq	y(%rip), %rax
	subq	%rax, %rdx
	movq	%rdx, %rax
	sarq	$63, %rax
	shrq	$58, %rax
	addq	%rax, %rdx
	andl	$63, %edx
	movq	%rdx, %rsi
	subq	%rax, %rsi
	movq	%rsi, %rax
	jmp	.L891
.L890:
	movq	x(%rip), %rax
	andl	$63, %eax
.L891:
	leaq	13948(%rax), %rdx
	movq	prof+8(,%rdx,8), %rdx
	addq	$1, %rdx
	addq	$13948, %rax
	movq	%rdx, prof+8(,%rax,8)
	movq	prof+112104(%rip), %rax
	addq	$1, %rax
	movq	%rax, prof+112104(%rip)
	cmpq	$16, -96(%rbp)
	ja	.L892
	movq	prof+106272(%rip), %rax
	addq	$1, %rax
	movq	%rax, prof+106272(%rip)
.L892:
	movq	b_malloc_lifetime(%rip), %rax
	andl	$8, %eax
	testq	%rax, %rax
	jne	.L893
	movq	x(%rip), %rax
	addq	-96(%rbp), %rax
	movq	%rax, %rdx
	shrq	$4, %rdx
	movq	x(%rip), %rax
	shrq	$4, %rax
	movq	%rdx, %rcx
	subq	%rax, %rcx
	movq	%rcx, %rax
	addq	$1, %rax
	jmp	.L894
.L893:
	movq	-96(%rbp), %rax
.L894:
	movq	%rax, -32(%rbp)
	movq	prof+112128(%rip), %rdx
	movq	prof+112120(%rip), %rax
	movq	%rdx, %rbx
	subq	%rax, %rbx
	movq	%rbx, %rax
	cmpq	$1999999, %rax
	ja	.L895
	cmpq	$999, -32(%rbp)
	jbe	.L896
	movq	$999, -32(%rbp)
.L896:
	movq	-32(%rbp), %rsi
	movq	%rsi, -152(%rbp)
	movabsq	$-3689348814741910323, %rdx
	movq	-152(%rbp), %rax
	mulq	%rdx
	movq	%rdx, %rax
	shrq	$3, %rax
	leaq	13384(%rax), %rdx
	movq	prof+8(,%rdx,8), %rdx
	addq	$1, %rdx
	addq	$13384, %rax
	movq	%rdx, prof+8(,%rax,8)
	movq	-32(%rbp), %rcx
	movq	%rcx, -152(%rbp)
	movabsq	$-3689348814741910323, %rdx
	movq	-152(%rbp), %rax
	mulq	%rdx
	movq	%rdx, %rax
	shrq	$3, %rax
	leaq	13584(%rax), %rdx
	movq	prof+8(,%rdx,8), %rdx
	movq	prof+112128(%rip), %rbx
	movq	prof+112120(%rip), %rcx
	movq	%rbx, %rsi
	subq	%rcx, %rsi
	movq	%rsi, %rcx
	addq	%rcx, %rdx
	addq	$13584, %rax
	movq	%rdx, prof+8(,%rax,8)
	cmpq	$99, -32(%rbp)
	jbe	.L897
	movq	$99, -32(%rbp)
.L897:
	movq	-32(%rbp), %rax
	addq	$13284, %rax
	movq	prof+8(,%rax,8), %rax
	leaq	1(%rax), %rdx
	movq	-32(%rbp), %rax
	addq	$13284, %rax
	movq	%rdx, prof+8(,%rax,8)
	movq	-32(%rbp), %rax
	addq	$13484, %rax
	movq	prof+8(,%rax,8), %rax
	movq	prof+112128(%rip), %rcx
	movq	prof+112120(%rip), %rdx
	movq	%rcx, %rbx
	subq	%rdx, %rbx
	movq	%rbx, %rdx
	leaq	(%rax,%rdx), %rdx
	movq	-32(%rbp), %rax
	addq	$13484, %rax
	movq	%rdx, prof+8(,%rax,8)
.L895:
	movq	b_malloc_lifetime(%rip), %rax
	andl	$1, %eax
	testb	%al, %al
	je	.L898
	movq	y(%rip), %rax
	movq	%rax, %rdi
	call	strlen
	movq	%rax, -40(%rbp)
	cmpq	$999, -40(%rbp)
	jbe	.L899
	movq	$999, -40(%rbp)
.L899:
	movq	-40(%rbp), %rsi
	movq	%rsi, -152(%rbp)
	movabsq	$-3689348814741910323, %rdx
	movq	-152(%rbp), %rax
	mulq	%rdx
	movq	%rdx, %rax
	shrq	$3, %rax
	leaq	13784(%rax), %rdx
	movq	prof+8(,%rdx,8), %rdx
	addq	$1, %rdx
	addq	$13784, %rax
	movq	%rdx, prof+8(,%rax,8)
	cmpq	$99, -40(%rbp)
	jbe	.L900
	movq	$99, -40(%rbp)
.L900:
	movq	-40(%rbp), %rax
	addq	$13684, %rax
	movq	prof+8(,%rax,8), %rax
	leaq	1(%rax), %rdx
	movq	-40(%rbp), %rax
